; generated with rustc, i did not write this

 	.text
	.def	@feat.00;
	.scl	3;
	.type	0;
	.endef
	.globl	@feat.00
.set @feat.00, 0
	.file	"main.afd9d8e556232a7-cgu.0"
	.def	_ZN103_$LT$alloc..vec..into_iter..IntoIter$LT$T$C$A$GT$$u20$as$u20$core..iter..traits..iterator..Iterator$GT$9size_hint17h64696f30e73a9abaE;
	.scl	3;
	.type	32;
	.endef
	.section	.text,"xr",one_only,_ZN103_$LT$alloc..vec..into_iter..IntoIter$LT$T$C$A$GT$$u20$as$u20$core..iter..traits..iterator..Iterator$GT$9size_hint17h64696f30e73a9abaE
	.p2align	4, 0x90
_ZN103_$LT$alloc..vec..into_iter..IntoIter$LT$T$C$A$GT$$u20$as$u20$core..iter..traits..iterator..Iterator$GT$9size_hint17h64696f30e73a9abaE:
.seh_proc _ZN103_$LT$alloc..vec..into_iter..IntoIter$LT$T$C$A$GT$$u20$as$u20$core..iter..traits..iterator..Iterator$GT$9size_hint17h64696f30e73a9abaE
	subq	$104, %rsp
	.seh_stackalloc 104
	.seh_endprologue
	movq	%rdx, 48(%rsp)
	movq	%rcx, 56(%rsp)
	movq	%rcx, 64(%rsp)
	xorl	%eax, %eax
	testb	$1, %al
	jne	.LBB0_2
	movq	48(%rsp), %rax
	movq	24(%rax), %rcx
	movq	%rcx, 32(%rsp)
	movq	16(%rax), %rax
	movq	%rax, 40(%rsp)
	movb	$1, %al
	testb	$1, %al
	jne	.LBB0_5
	jmp	.LBB0_4
.LBB0_2:
	movq	48(%rsp), %rcx
	movq	24(%rcx), %rax
	movq	16(%rcx), %rcx
	subq	%rcx, %rax
	movq	%rax, 72(%rsp)
.LBB0_3:
	movq	64(%rsp), %rax
	movq	56(%rsp), %rcx
	movq	72(%rsp), %rdx
	movq	72(%rsp), %r8
	movq	%r8, 88(%rsp)
	movq	$1, 80(%rsp)
	movq	%rdx, (%rcx)
	movq	80(%rsp), %r8
	movq	88(%rsp), %rdx
	movq	%r8, 8(%rcx)
	movq	%rdx, 16(%rcx)
	addq	$104, %rsp
	retq
.LBB0_4:
	movb	$0, 103(%rsp)
	jmp	.LBB0_6
.LBB0_5:
	movb	$1, 103(%rsp)
.LBB0_6:
	movb	103(%rsp), %al
	xorb	$-1, %al
	testb	$1, %al
	jne	.LBB0_8
	movq	40(%rsp), %rcx
	movq	32(%rsp), %rax
	subq	%rcx, %rax
	shrq	$5, %rax
	movq	%rax, 72(%rsp)
	jmp	.LBB0_3
.LBB0_8:
	leaq	__unnamed_1(%rip), %rcx
	leaq	__unnamed_2(%rip), %r8
	movl	$73, %edx
	callq	_ZN4core9panicking5panic17h18ebef604ebe8b48E
	ud2
	.seh_endproc

	.def	_ZN111_$LT$alloc..vec..Vec$LT$T$GT$$u20$as$u20$alloc..vec..spec_from_iter_nested..SpecFromIterNested$LT$T$C$I$GT$$GT$9from_iter17haea563c4507eed3fE;
	.scl	3;
	.type	32;
	.endef
	.section	.text,"xr",one_only,_ZN111_$LT$alloc..vec..Vec$LT$T$GT$$u20$as$u20$alloc..vec..spec_from_iter_nested..SpecFromIterNested$LT$T$C$I$GT$$GT$9from_iter17haea563c4507eed3fE
	.p2align	4, 0x90
_ZN111_$LT$alloc..vec..Vec$LT$T$GT$$u20$as$u20$alloc..vec..spec_from_iter_nested..SpecFromIterNested$LT$T$C$I$GT$$GT$9from_iter17haea563c4507eed3fE:
.Lfunc_begin0:
.seh_proc _ZN111_$LT$alloc..vec..Vec$LT$T$GT$$u20$as$u20$alloc..vec..spec_from_iter_nested..SpecFromIterNested$LT$T$C$I$GT$$GT$9from_iter17haea563c4507eed3fE
	.seh_handler __CxxFrameHandler3, @unwind, @except
	pushq	%rbp
	.seh_pushreg %rbp
	subq	$304, %rsp
	.seh_stackalloc 304
	leaq	128(%rsp), %rbp
	.seh_setframe %rbp, 128
	.seh_endprologue
	movq	$-2, 168(%rbp)
	movq	%rdx, -72(%rbp)
	movq	%rcx, -64(%rbp)
	movq	%rcx, -56(%rbp)
	movb	$1, 159(%rbp)
.Ltmp0:
	leaq	-24(%rbp), %rcx
	callq	_ZN73_$LT$std..env..Args$u20$as$u20$core..iter..traits..iterator..Iterator$GT$4next17h67b02f6776aed8f2E
.Ltmp1:
	jmp	.LBB1_2
.LBB1_2:
	movq	-24(%rbp), %rax
	cmpq	$0, %rax
	sete	%al
	testb	$1, %al
	jne	.LBB1_3
	jmp	.LBB1_4
.LBB1_3:
	movq	-72(%rbp), %rcx
	movq	-64(%rbp), %rax
	movl	$8, %edx
	movq	%rdx, (%rax)
	movq	$0, 8(%rax)
	movq	$0, 16(%rax)
	callq	_ZN4core3ptr35drop_in_place$LT$std..env..Args$GT$17h6923adcb80febfdcE
	jmp	.LBB1_13
.LBB1_4:
	movq	-72(%rbp), %rdx
	movq	-8(%rbp), %rax
	movq	%rax, 16(%rbp)
	movups	-24(%rbp), %xmm0
	movaps	%xmm0, (%rbp)
.Ltmp2:
	leaq	32(%rbp), %rcx
	callq	_ZN73_$LT$std..env..Args$u20$as$u20$core..iter..traits..iterator..Iterator$GT$9size_hint17h4ed6d2bb86595f1fE
.Ltmp3:
	jmp	.LBB1_6
.LBB1_6:
	movq	32(%rbp), %rax
	incq	%rax
	movq	$-1, %rcx
	cmoveq	%rcx, %rax
	movq	%rax, 160(%rbp)
	movq	160(%rbp), %rdx
.Ltmp4:
	movl	$4, %ecx
	callq	_ZN4core3cmp6max_by17h118efc92c3261ec2E
.Ltmp5:
	movq	%rax, -80(%rbp)
	jmp	.LBB1_7
.LBB1_7:
.Ltmp6:
	movq	-80(%rbp), %rcx
	xorl	%eax, %eax
	movb	%al, %dl
	callq	_ZN5alloc7raw_vec19RawVec$LT$T$C$A$GT$11allocate_in17haa3edf6bbdff8c38E
.Ltmp7:
	movq	%rdx, -96(%rbp)
	movq	%rax, -88(%rbp)
	jmp	.LBB1_8
.LBB1_8:
	movq	-72(%rbp), %rax
	movq	-96(%rbp), %rcx
	movq	-88(%rbp), %rdx
	movq	%rdx, 56(%rbp)
	movq	%rcx, 64(%rbp)
	movq	$0, 72(%rbp)
	movq	56(%rbp), %rcx
	movq	16(%rbp), %rdx
	movq	%rdx, 96(%rbp)
	movaps	(%rbp), %xmm0
	movaps	%xmm0, 80(%rbp)
	movq	96(%rbp), %rdx
	movq	%rdx, 16(%rcx)
	movaps	80(%rbp), %xmm0
	movups	%xmm0, (%rcx)
	movq	$1, 72(%rbp)
	movq	72(%rbp), %rcx
	movq	%rcx, -32(%rbp)
	movups	56(%rbp), %xmm0
	movaps	%xmm0, -48(%rbp)
	movb	$0, 159(%rbp)
	movups	(%rax), %xmm0
	movups	16(%rax), %xmm1
	movaps	%xmm1, 128(%rbp)
	movaps	%xmm0, 112(%rbp)
.Ltmp8:
	leaq	-48(%rbp), %rcx
	leaq	112(%rbp), %rdx
	callq	_ZN97_$LT$alloc..vec..Vec$LT$T$C$A$GT$$u20$as$u20$alloc..vec..spec_extend..SpecExtend$LT$T$C$I$GT$$GT$11spec_extend17h297db5b3dddf8f22E
.Ltmp9:
	jmp	.LBB1_10
.LBB1_10:
	movq	-64(%rbp), %rax
	movq	-48(%rbp), %rcx
	movq	%rcx, (%rax)
	movq	-40(%rbp), %rcx
	movq	%rcx, 8(%rax)
	movq	-32(%rbp), %rcx
	movq	%rcx, 16(%rax)
	jmp	.LBB1_13
.LBB1_13:
	movq	-56(%rbp), %rax
	addq	$304, %rsp
	popq	%rbp
	retq
	.seh_handlerdata
	.long	($cppxdata$_ZN111_$LT$alloc..vec..Vec$LT$T$GT$$u20$as$u20$alloc..vec..spec_from_iter_nested..SpecFromIterNested$LT$T$C$I$GT$$GT$9from_iter17haea563c4507eed3fE)@IMGREL
	.section	.text,"xr",one_only,_ZN111_$LT$alloc..vec..Vec$LT$T$GT$$u20$as$u20$alloc..vec..spec_from_iter_nested..SpecFromIterNested$LT$T$C$I$GT$$GT$9from_iter17haea563c4507eed3fE
	.seh_endproc
	.def	"?dtor$1@?0?_ZN111_$LT$alloc..vec..Vec$LT$T$GT$$u20$as$u20$alloc..vec..spec_from_iter_nested..SpecFromIterNested$LT$T$C$I$GT$$GT$9from_iter17haea563c4507eed3fE@4HA";
	.scl	3;
	.type	32;
	.endef
	.p2align	4, 0x90
"?dtor$1@?0?_ZN111_$LT$alloc..vec..Vec$LT$T$GT$$u20$as$u20$alloc..vec..spec_from_iter_nested..SpecFromIterNested$LT$T$C$I$GT$$GT$9from_iter17haea563c4507eed3fE@4HA":
.seh_proc "?dtor$1@?0?_ZN111_$LT$alloc..vec..Vec$LT$T$GT$$u20$as$u20$alloc..vec..spec_from_iter_nested..SpecFromIterNested$LT$T$C$I$GT$$GT$9from_iter17haea563c4507eed3fE@4HA"
.LBB1_1:
	movq	%rdx, 16(%rsp)
	pushq	%rbp
	.seh_pushreg %rbp
	subq	$32, %rsp
	.seh_stackalloc 32
	leaq	128(%rdx), %rbp
	.seh_endprologue
	testb	$1, 159(%rbp)
	jne	.LBB1_12
	jmp	.LBB1_11
.LBB1_11:
	addq	$32, %rsp
	popq	%rbp
	retq
.LBB1_12:
	movq	-72(%rbp), %rcx
	callq	_ZN4core3ptr35drop_in_place$LT$std..env..Args$GT$17h6923adcb80febfdcE
	jmp	.LBB1_11
	.seh_handlerdata
	.section	.text,"xr",one_only,_ZN111_$LT$alloc..vec..Vec$LT$T$GT$$u20$as$u20$alloc..vec..spec_from_iter_nested..SpecFromIterNested$LT$T$C$I$GT$$GT$9from_iter17haea563c4507eed3fE
	.seh_endproc
	.def	"?dtor$5@?0?_ZN111_$LT$alloc..vec..Vec$LT$T$GT$$u20$as$u20$alloc..vec..spec_from_iter_nested..SpecFromIterNested$LT$T$C$I$GT$$GT$9from_iter17haea563c4507eed3fE@4HA";
	.scl	3;
	.type	32;
	.endef
	.p2align	4, 0x90
"?dtor$5@?0?_ZN111_$LT$alloc..vec..Vec$LT$T$GT$$u20$as$u20$alloc..vec..spec_from_iter_nested..SpecFromIterNested$LT$T$C$I$GT$$GT$9from_iter17haea563c4507eed3fE@4HA":
.seh_proc "?dtor$5@?0?_ZN111_$LT$alloc..vec..Vec$LT$T$GT$$u20$as$u20$alloc..vec..spec_from_iter_nested..SpecFromIterNested$LT$T$C$I$GT$$GT$9from_iter17haea563c4507eed3fE@4HA"
.LBB1_5:
	movq	%rdx, 16(%rsp)
	pushq	%rbp
	.seh_pushreg %rbp
	subq	$32, %rsp
	.seh_stackalloc 32
	leaq	128(%rdx), %rbp
	.seh_endprologue
	movq	%rbp, %rcx
	callq	_ZN4core3ptr42drop_in_place$LT$alloc..string..String$GT$17h8b93a42a264a5bd1E
	nop
	addq	$32, %rsp
	popq	%rbp
	retq
	.seh_handlerdata
	.section	.text,"xr",one_only,_ZN111_$LT$alloc..vec..Vec$LT$T$GT$$u20$as$u20$alloc..vec..spec_from_iter_nested..SpecFromIterNested$LT$T$C$I$GT$$GT$9from_iter17haea563c4507eed3fE
	.seh_endproc
	.def	"?dtor$9@?0?_ZN111_$LT$alloc..vec..Vec$LT$T$GT$$u20$as$u20$alloc..vec..spec_from_iter_nested..SpecFromIterNested$LT$T$C$I$GT$$GT$9from_iter17haea563c4507eed3fE@4HA";
	.scl	3;
	.type	32;
	.endef
	.p2align	4, 0x90
"?dtor$9@?0?_ZN111_$LT$alloc..vec..Vec$LT$T$GT$$u20$as$u20$alloc..vec..spec_from_iter_nested..SpecFromIterNested$LT$T$C$I$GT$$GT$9from_iter17haea563c4507eed3fE@4HA":
.seh_proc "?dtor$9@?0?_ZN111_$LT$alloc..vec..Vec$LT$T$GT$$u20$as$u20$alloc..vec..spec_from_iter_nested..SpecFromIterNested$LT$T$C$I$GT$$GT$9from_iter17haea563c4507eed3fE@4HA"
.LBB1_9:
	movq	%rdx, 16(%rsp)
	pushq	%rbp
	.seh_pushreg %rbp
	subq	$32, %rsp
	.seh_stackalloc 32
	leaq	128(%rdx), %rbp
	.seh_endprologue
	leaq	-48(%rbp), %rcx
	callq	_ZN4core3ptr65drop_in_place$LT$alloc..vec..Vec$LT$alloc..string..String$GT$$GT$17h13469b5dd60fd579E
	nop
	addq	$32, %rsp
	popq	%rbp
	retq
.Lfunc_end0:
	.seh_handlerdata
	.section	.text,"xr",one_only,_ZN111_$LT$alloc..vec..Vec$LT$T$GT$$u20$as$u20$alloc..vec..spec_from_iter_nested..SpecFromIterNested$LT$T$C$I$GT$$GT$9from_iter17haea563c4507eed3fE
	.seh_endproc
	.section	.xdata,"dr",associative,_ZN111_$LT$alloc..vec..Vec$LT$T$GT$$u20$as$u20$alloc..vec..spec_from_iter_nested..SpecFromIterNested$LT$T$C$I$GT$$GT$9from_iter17haea563c4507eed3fE
	.p2align	2, 0x0
$cppxdata$_ZN111_$LT$alloc..vec..Vec$LT$T$GT$$u20$as$u20$alloc..vec..spec_from_iter_nested..SpecFromIterNested$LT$T$C$I$GT$$GT$9from_iter17haea563c4507eed3fE:
	.long	429065506
	.long	3
	.long	($stateUnwindMap$_ZN111_$LT$alloc..vec..Vec$LT$T$GT$$u20$as$u20$alloc..vec..spec_from_iter_nested..SpecFromIterNested$LT$T$C$I$GT$$GT$9from_iter17haea563c4507eed3fE)@IMGREL
	.long	0
	.long	0
	.long	6
	.long	($ip2state$_ZN111_$LT$alloc..vec..Vec$LT$T$GT$$u20$as$u20$alloc..vec..spec_from_iter_nested..SpecFromIterNested$LT$T$C$I$GT$$GT$9from_iter17haea563c4507eed3fE)@IMGREL
	.long	296
	.long	0
	.long	1
$stateUnwindMap$_ZN111_$LT$alloc..vec..Vec$LT$T$GT$$u20$as$u20$alloc..vec..spec_from_iter_nested..SpecFromIterNested$LT$T$C$I$GT$$GT$9from_iter17haea563c4507eed3fE:
	.long	-1
	.long	"?dtor$1@?0?_ZN111_$LT$alloc..vec..Vec$LT$T$GT$$u20$as$u20$alloc..vec..spec_from_iter_nested..SpecFromIterNested$LT$T$C$I$GT$$GT$9from_iter17haea563c4507eed3fE@4HA"@IMGREL
	.long	0
	.long	"?dtor$9@?0?_ZN111_$LT$alloc..vec..Vec$LT$T$GT$$u20$as$u20$alloc..vec..spec_from_iter_nested..SpecFromIterNested$LT$T$C$I$GT$$GT$9from_iter17haea563c4507eed3fE@4HA"@IMGREL
	.long	0
	.long	"?dtor$5@?0?_ZN111_$LT$alloc..vec..Vec$LT$T$GT$$u20$as$u20$alloc..vec..spec_from_iter_nested..SpecFromIterNested$LT$T$C$I$GT$$GT$9from_iter17haea563c4507eed3fE@4HA"@IMGREL
$ip2state$_ZN111_$LT$alloc..vec..Vec$LT$T$GT$$u20$as$u20$alloc..vec..spec_from_iter_nested..SpecFromIterNested$LT$T$C$I$GT$$GT$9from_iter17haea563c4507eed3fE:
	.long	.Lfunc_begin0@IMGREL
	.long	-1
	.long	.Ltmp0@IMGREL+1
	.long	0
	.long	.Ltmp1@IMGREL+1
	.long	-1
	.long	.Ltmp2@IMGREL+1
	.long	2
	.long	.Ltmp8@IMGREL+1
	.long	1
	.long	.Ltmp9@IMGREL+1
	.long	-1
	.section	.text,"xr",one_only,_ZN111_$LT$alloc..vec..Vec$LT$T$GT$$u20$as$u20$alloc..vec..spec_from_iter_nested..SpecFromIterNested$LT$T$C$I$GT$$GT$9from_iter17haea563c4507eed3fE

	.def	_ZN157_$LT$$LT$alloc..vec..into_iter..IntoIter$LT$T$C$A$GT$$u20$as$u20$core..ops..drop..Drop$GT$..drop..DropGuard$LT$T$C$A$GT$$u20$as$u20$core..ops..drop..Drop$GT$4drop17hfe318329980a38deE;
	.scl	3;
	.type	32;
	.endef
	.section	.text,"xr",one_only,_ZN157_$LT$$LT$alloc..vec..into_iter..IntoIter$LT$T$C$A$GT$$u20$as$u20$core..ops..drop..Drop$GT$..drop..DropGuard$LT$T$C$A$GT$$u20$as$u20$core..ops..drop..Drop$GT$4drop17hfe318329980a38deE
	.p2align	4, 0x90
_ZN157_$LT$$LT$alloc..vec..into_iter..IntoIter$LT$T$C$A$GT$$u20$as$u20$core..ops..drop..Drop$GT$..drop..DropGuard$LT$T$C$A$GT$$u20$as$u20$core..ops..drop..Drop$GT$4drop17hfe318329980a38deE:
.Lfunc_begin1:
.seh_proc _ZN157_$LT$$LT$alloc..vec..into_iter..IntoIter$LT$T$C$A$GT$$u20$as$u20$core..ops..drop..Drop$GT$..drop..DropGuard$LT$T$C$A$GT$$u20$as$u20$core..ops..drop..Drop$GT$4drop17hfe318329980a38deE
	.seh_handler __CxxFrameHandler3, @unwind, @except
	pushq	%rbp
	.seh_pushreg %rbp
	subq	$80, %rsp
	.seh_stackalloc 80
	leaq	80(%rsp), %rbp
	.seh_setframe %rbp, 80
	.seh_endprologue
	movq	$-2, -8(%rbp)
	movq	(%rcx), %rax
	movq	(%rax), %rcx
	movq	8(%rax), %rax
	movq	%rcx, -16(%rbp)
	movq	-16(%rbp), %rcx
	movq	%rcx, -24(%rbp)
	movq	-24(%rbp), %rcx
	movq	%rcx, -40(%rbp)
	movq	%rax, -32(%rbp)
.Ltmp10:
	leaq	-40(%rbp), %rcx
	callq	_ZN4core3ptr77drop_in_place$LT$alloc..raw_vec..RawVec$LT$std..ffi..os_str..OsString$GT$$GT$17h59513c7d11e4c02fE
.Ltmp11:
	jmp	.LBB2_2
.LBB2_2:
	addq	$80, %rsp
	popq	%rbp
	retq
	.seh_handlerdata
	.long	($cppxdata$_ZN157_$LT$$LT$alloc..vec..into_iter..IntoIter$LT$T$C$A$GT$$u20$as$u20$core..ops..drop..Drop$GT$..drop..DropGuard$LT$T$C$A$GT$$u20$as$u20$core..ops..drop..Drop$GT$4drop17hfe318329980a38deE)@IMGREL
	.section	.text,"xr",one_only,_ZN157_$LT$$LT$alloc..vec..into_iter..IntoIter$LT$T$C$A$GT$$u20$as$u20$core..ops..drop..Drop$GT$..drop..DropGuard$LT$T$C$A$GT$$u20$as$u20$core..ops..drop..Drop$GT$4drop17hfe318329980a38deE
	.seh_endproc
	.def	"?dtor$1@?0?_ZN157_$LT$$LT$alloc..vec..into_iter..IntoIter$LT$T$C$A$GT$$u20$as$u20$core..ops..drop..Drop$GT$..drop..DropGuard$LT$T$C$A$GT$$u20$as$u20$core..ops..drop..Drop$GT$4drop17hfe318329980a38deE@4HA";
	.scl	3;
	.type	32;
	.endef
	.p2align	4, 0x90
"?dtor$1@?0?_ZN157_$LT$$LT$alloc..vec..into_iter..IntoIter$LT$T$C$A$GT$$u20$as$u20$core..ops..drop..Drop$GT$..drop..DropGuard$LT$T$C$A$GT$$u20$as$u20$core..ops..drop..Drop$GT$4drop17hfe318329980a38deE@4HA":
.seh_proc "?dtor$1@?0?_ZN157_$LT$$LT$alloc..vec..into_iter..IntoIter$LT$T$C$A$GT$$u20$as$u20$core..ops..drop..Drop$GT$..drop..DropGuard$LT$T$C$A$GT$$u20$as$u20$core..ops..drop..Drop$GT$4drop17hfe318329980a38deE@4HA"
.LBB2_1:
	movq	%rdx, 16(%rsp)
	pushq	%rbp
	.seh_pushreg %rbp
	subq	$32, %rsp
	.seh_stackalloc 32
	leaq	80(%rdx), %rbp
	.seh_endprologue
	addq	$32, %rsp
	popq	%rbp
	retq
.Lfunc_end1:
	.seh_handlerdata
	.section	.text,"xr",one_only,_ZN157_$LT$$LT$alloc..vec..into_iter..IntoIter$LT$T$C$A$GT$$u20$as$u20$core..ops..drop..Drop$GT$..drop..DropGuard$LT$T$C$A$GT$$u20$as$u20$core..ops..drop..Drop$GT$4drop17hfe318329980a38deE
	.seh_endproc
	.section	.xdata,"dr",associative,_ZN157_$LT$$LT$alloc..vec..into_iter..IntoIter$LT$T$C$A$GT$$u20$as$u20$core..ops..drop..Drop$GT$..drop..DropGuard$LT$T$C$A$GT$$u20$as$u20$core..ops..drop..Drop$GT$4drop17hfe318329980a38deE
	.p2align	2, 0x0
$cppxdata$_ZN157_$LT$$LT$alloc..vec..into_iter..IntoIter$LT$T$C$A$GT$$u20$as$u20$core..ops..drop..Drop$GT$..drop..DropGuard$LT$T$C$A$GT$$u20$as$u20$core..ops..drop..Drop$GT$4drop17hfe318329980a38deE:
	.long	429065506
	.long	1
	.long	($stateUnwindMap$_ZN157_$LT$$LT$alloc..vec..into_iter..IntoIter$LT$T$C$A$GT$$u20$as$u20$core..ops..drop..Drop$GT$..drop..DropGuard$LT$T$C$A$GT$$u20$as$u20$core..ops..drop..Drop$GT$4drop17hfe318329980a38deE)@IMGREL
	.long	0
	.long	0
	.long	3
	.long	($ip2state$_ZN157_$LT$$LT$alloc..vec..into_iter..IntoIter$LT$T$C$A$GT$$u20$as$u20$core..ops..drop..Drop$GT$..drop..DropGuard$LT$T$C$A$GT$$u20$as$u20$core..ops..drop..Drop$GT$4drop17hfe318329980a38deE)@IMGREL
	.long	72
	.long	0
	.long	1
$stateUnwindMap$_ZN157_$LT$$LT$alloc..vec..into_iter..IntoIter$LT$T$C$A$GT$$u20$as$u20$core..ops..drop..Drop$GT$..drop..DropGuard$LT$T$C$A$GT$$u20$as$u20$core..ops..drop..Drop$GT$4drop17hfe318329980a38deE:
	.long	-1
	.long	"?dtor$1@?0?_ZN157_$LT$$LT$alloc..vec..into_iter..IntoIter$LT$T$C$A$GT$$u20$as$u20$core..ops..drop..Drop$GT$..drop..DropGuard$LT$T$C$A$GT$$u20$as$u20$core..ops..drop..Drop$GT$4drop17hfe318329980a38deE@4HA"@IMGREL
$ip2state$_ZN157_$LT$$LT$alloc..vec..into_iter..IntoIter$LT$T$C$A$GT$$u20$as$u20$core..ops..drop..Drop$GT$..drop..DropGuard$LT$T$C$A$GT$$u20$as$u20$core..ops..drop..Drop$GT$4drop17hfe318329980a38deE:
	.long	.Lfunc_begin1@IMGREL
	.long	-1
	.long	.Ltmp10@IMGREL+1
	.long	0
	.long	.Ltmp11@IMGREL+1
	.long	-1
	.section	.text,"xr",one_only,_ZN157_$LT$$LT$alloc..vec..into_iter..IntoIter$LT$T$C$A$GT$$u20$as$u20$core..ops..drop..Drop$GT$..drop..DropGuard$LT$T$C$A$GT$$u20$as$u20$core..ops..drop..Drop$GT$4drop17hfe318329980a38deE

	.def	_ZN3std10sys_common9backtrace28__rust_begin_short_backtrace17hbccc248a7382c927E;
	.scl	3;
	.type	32;
	.endef
	.section	.text,"xr",one_only,_ZN3std10sys_common9backtrace28__rust_begin_short_backtrace17hbccc248a7382c927E
	.p2align	4, 0x90
_ZN3std10sys_common9backtrace28__rust_begin_short_backtrace17hbccc248a7382c927E:
.seh_proc _ZN3std10sys_common9backtrace28__rust_begin_short_backtrace17hbccc248a7382c927E
	subq	$40, %rsp
	.seh_stackalloc 40
	.seh_endprologue
	callq	_ZN4core3ops8function6FnOnce9call_once17h364944b8ad11e59eE
	#APP
	#NO_APP
	nop
	addq	$40, %rsp
	retq
	.seh_endproc

	.def	_ZN3std2rt10lang_start17hf4a787ab4b160089E;
	.scl	2;
	.type	32;
	.endef
	.section	.text,"xr",one_only,_ZN3std2rt10lang_start17hf4a787ab4b160089E
	.globl	_ZN3std2rt10lang_start17hf4a787ab4b160089E
	.p2align	4, 0x90
_ZN3std2rt10lang_start17hf4a787ab4b160089E:
.seh_proc _ZN3std2rt10lang_start17hf4a787ab4b160089E
	subq	$56, %rsp
	.seh_stackalloc 56
	.seh_endprologue
	movb	%r9b, %al
	movq	%r8, %r9
	movq	%rdx, %r8
	movq	%rcx, 48(%rsp)
	leaq	48(%rsp), %rcx
	leaq	__unnamed_3(%rip), %rdx
	movb	%al, 32(%rsp)
	callq	_ZN3std2rt19lang_start_internal17h0313940263866d5cE
	movq	%rax, 40(%rsp)
	movq	40(%rsp), %rax
	addq	$56, %rsp
	retq
	.seh_endproc

	.def	_ZN3std2rt10lang_start28_$u7b$$u7b$closure$u7d$$u7d$17h7b3394cf5149f879E;
	.scl	3;
	.type	32;
	.endef
	.section	.text,"xr",one_only,_ZN3std2rt10lang_start28_$u7b$$u7b$closure$u7d$$u7d$17h7b3394cf5149f879E
	.p2align	4, 0x90
_ZN3std2rt10lang_start28_$u7b$$u7b$closure$u7d$$u7d$17h7b3394cf5149f879E:
.seh_proc _ZN3std2rt10lang_start28_$u7b$$u7b$closure$u7d$$u7d$17h7b3394cf5149f879E
	subq	$40, %rsp
	.seh_stackalloc 40
	.seh_endprologue
	movq	(%rcx), %rcx
	callq	_ZN3std10sys_common9backtrace28__rust_begin_short_backtrace17hbccc248a7382c927E
	callq	_ZN54_$LT$$LP$$RP$$u20$as$u20$std..process..Termination$GT$6report17h759cbc3fa389d586E
	movl	%eax, 36(%rsp)
	movl	36(%rsp), %eax
	addq	$40, %rsp
	retq
	.seh_endproc

	.def	_ZN42_$LT$$RF$T$u20$as$u20$core..fmt..Debug$GT$3fmt17h69f3d89ea9a0fda5E;
	.scl	3;
	.type	32;
	.endef
	.section	.text,"xr",one_only,_ZN42_$LT$$RF$T$u20$as$u20$core..fmt..Debug$GT$3fmt17h69f3d89ea9a0fda5E
	.p2align	4, 0x90
_ZN42_$LT$$RF$T$u20$as$u20$core..fmt..Debug$GT$3fmt17h69f3d89ea9a0fda5E:
.seh_proc _ZN42_$LT$$RF$T$u20$as$u20$core..fmt..Debug$GT$3fmt17h69f3d89ea9a0fda5E
	subq	$40, %rsp
	.seh_stackalloc 40
	.seh_endprologue
	movq	(%rcx), %rcx
	callq	_ZN4core3fmt3num52_$LT$impl$u20$core..fmt..Debug$u20$for$u20$usize$GT$3fmt17h859759b2daf1bfc3E
	andb	$1, %al
	movzbl	%al, %eax
	addq	$40, %rsp
	retq
	.seh_endproc

	.def	_ZN42_$LT$$RF$T$u20$as$u20$core..fmt..Debug$GT$3fmt17ha2e636de62c16706E;
	.scl	3;
	.type	32;
	.endef
	.section	.text,"xr",one_only,_ZN42_$LT$$RF$T$u20$as$u20$core..fmt..Debug$GT$3fmt17ha2e636de62c16706E
	.p2align	4, 0x90
_ZN42_$LT$$RF$T$u20$as$u20$core..fmt..Debug$GT$3fmt17ha2e636de62c16706E:
.seh_proc _ZN42_$LT$$RF$T$u20$as$u20$core..fmt..Debug$GT$3fmt17ha2e636de62c16706E
	subq	$40, %rsp
	.seh_stackalloc 40
	.seh_endprologue
	movq	(%rcx), %rcx
	callq	_ZN66_$LT$core..option..Option$LT$T$GT$$u20$as$u20$core..fmt..Debug$GT$3fmt17h2cc0af023452be4cE
	andb	$1, %al
	movzbl	%al, %eax
	addq	$40, %rsp
	retq
	.seh_endproc

	.def	_ZN47_$LT$i32$u20$as$u20$core..iter..range..Step$GT$17forward_unchecked17h1df008eb2b579910E;
	.scl	3;
	.type	32;
	.endef
	.section	.text,"xr",one_only,_ZN47_$LT$i32$u20$as$u20$core..iter..range..Step$GT$17forward_unchecked17h1df008eb2b579910E
	.p2align	4, 0x90
_ZN47_$LT$i32$u20$as$u20$core..iter..range..Step$GT$17forward_unchecked17h1df008eb2b579910E:
.seh_proc _ZN47_$LT$i32$u20$as$u20$core..iter..range..Step$GT$17forward_unchecked17h1df008eb2b579910E
	pushq	%rax
	.seh_stackalloc 8
	.seh_endprologue
	movl	%edx, %eax
	addl	%eax, %ecx
	movl	%ecx, 4(%rsp)
	movl	4(%rsp), %eax
	popq	%rcx
	retq
	.seh_endproc

	.def	_ZN48_$LT$u128$u20$as$u20$core..iter..range..Step$GT$17forward_unchecked17hebb349b6e1cab1b5E;
	.scl	3;
	.type	32;
	.endef
	.section	.text,"xr",one_only,_ZN48_$LT$u128$u20$as$u20$core..iter..range..Step$GT$17forward_unchecked17hebb349b6e1cab1b5E
	.p2align	4, 0x90
_ZN48_$LT$u128$u20$as$u20$core..iter..range..Step$GT$17forward_unchecked17hebb349b6e1cab1b5E:
.seh_proc _ZN48_$LT$u128$u20$as$u20$core..iter..range..Step$GT$17forward_unchecked17hebb349b6e1cab1b5E
	subq	$16, %rsp
	.seh_stackalloc 16
	.seh_endprologue
	addq	%r8, %rcx
	adcq	$0, %rdx
	movq	%rcx, (%rsp)
	movq	%rdx, 8(%rsp)
	movq	(%rsp), %rax
	movq	8(%rsp), %rdx
	addq	$16, %rsp
	retq
	.seh_endproc

	.def	_ZN49_$LT$usize$u20$as$u20$core..iter..range..Step$GT$17forward_unchecked17h75c924a11361ad9eE;
	.scl	3;
	.type	32;
	.endef
	.section	.text,"xr",one_only,_ZN49_$LT$usize$u20$as$u20$core..iter..range..Step$GT$17forward_unchecked17h75c924a11361ad9eE
	.p2align	4, 0x90
_ZN49_$LT$usize$u20$as$u20$core..iter..range..Step$GT$17forward_unchecked17h75c924a11361ad9eE:
.seh_proc _ZN49_$LT$usize$u20$as$u20$core..iter..range..Step$GT$17forward_unchecked17h75c924a11361ad9eE
	pushq	%rax
	.seh_stackalloc 8
	.seh_endprologue
	addq	%rdx, %rcx
	movq	%rcx, (%rsp)
	movq	(%rsp), %rax
	popq	%rcx
	retq
	.seh_endproc

	.def	_ZN49_$LT$usize$u20$as$u20$core..iter..range..Step$GT$18backward_unchecked17hed757b3c770845b8E;
	.scl	3;
	.type	32;
	.endef
	.section	.text,"xr",one_only,_ZN49_$LT$usize$u20$as$u20$core..iter..range..Step$GT$18backward_unchecked17hed757b3c770845b8E
	.p2align	4, 0x90
_ZN49_$LT$usize$u20$as$u20$core..iter..range..Step$GT$18backward_unchecked17hed757b3c770845b8E:
.seh_proc _ZN49_$LT$usize$u20$as$u20$core..iter..range..Step$GT$18backward_unchecked17hed757b3c770845b8E
	pushq	%rax
	.seh_stackalloc 8
	.seh_endprologue
	subq	%rdx, %rcx
	movq	%rcx, (%rsp)
	movq	(%rsp), %rax
	popq	%rcx
	retq
	.seh_endproc

	.def	_ZN4core3cmp5impls50_$LT$impl$u20$core..cmp..Ord$u20$for$u20$usize$GT$3cmp17hc5c70e55b345ecccE;
	.scl	3;
	.type	32;
	.endef
	.section	.text,"xr",one_only,_ZN4core3cmp5impls50_$LT$impl$u20$core..cmp..Ord$u20$for$u20$usize$GT$3cmp17hc5c70e55b345ecccE
	.p2align	4, 0x90
_ZN4core3cmp5impls50_$LT$impl$u20$core..cmp..Ord$u20$for$u20$usize$GT$3cmp17hc5c70e55b345ecccE:
.seh_proc _ZN4core3cmp5impls50_$LT$impl$u20$core..cmp..Ord$u20$for$u20$usize$GT$3cmp17hc5c70e55b345ecccE
	subq	$24, %rsp
	.seh_stackalloc 24
	.seh_endprologue
	movq	%rdx, (%rsp)
	movq	%rcx, 8(%rsp)
	movq	(%rcx), %rax
	cmpq	(%rdx), %rax
	jb	.LBB12_2
	movq	(%rsp), %rcx
	movq	8(%rsp), %rax
	movq	(%rax), %rax
	cmpq	(%rcx), %rax
	je	.LBB12_5
	jmp	.LBB12_4
.LBB12_2:
	movb	$-1, 23(%rsp)
.LBB12_3:
	movb	23(%rsp), %al
	addq	$24, %rsp
	retq
.LBB12_4:
	movb	$1, 23(%rsp)
	jmp	.LBB12_6
.LBB12_5:
	movb	$0, 23(%rsp)
.LBB12_6:
	jmp	.LBB12_3
	.seh_endproc

	.def	_ZN4core3cmp5impls56_$LT$impl$u20$core..cmp..PartialEq$u20$for$u20$usize$GT$2eq17h378599ae5224831cE;
	.scl	3;
	.type	32;
	.endef
	.section	.text,"xr",one_only,_ZN4core3cmp5impls56_$LT$impl$u20$core..cmp..PartialEq$u20$for$u20$usize$GT$2eq17h378599ae5224831cE
	.p2align	4, 0x90
_ZN4core3cmp5impls56_$LT$impl$u20$core..cmp..PartialEq$u20$for$u20$usize$GT$2eq17h378599ae5224831cE:
	movq	(%rcx), %rax
	cmpq	(%rdx), %rax
	sete	%al
	andb	$1, %al
	movzbl	%al, %eax
	retq

	.def	_ZN4core3cmp6max_by17h118efc92c3261ec2E;
	.scl	3;
	.type	32;
	.endef
	.section	.text,"xr",one_only,_ZN4core3cmp6max_by17h118efc92c3261ec2E
	.p2align	4, 0x90
_ZN4core3cmp6max_by17h118efc92c3261ec2E:
.Lfunc_begin2:
.seh_proc _ZN4core3cmp6max_by17h118efc92c3261ec2E
	.seh_handler __CxxFrameHandler3, @unwind, @except
	pushq	%rbp
	.seh_pushreg %rbp
	subq	$112, %rsp
	.seh_stackalloc 112
	leaq	112(%rsp), %rbp
	.seh_setframe %rbp, 112
	.seh_endprologue
	movq	$-2, -8(%rbp)
	movq	%rcx, -64(%rbp)
	movq	%rdx, -56(%rbp)
	movb	$1, -9(%rbp)
	movb	$1, -10(%rbp)
	leaq	-64(%rbp), %rax
	movq	%rax, -32(%rbp)
	leaq	-56(%rbp), %rax
	movq	%rax, -24(%rbp)
	movq	-32(%rbp), %rcx
	movq	-24(%rbp), %rdx
.Ltmp12:
	callq	_ZN4core3ops8function6FnOnce9call_once17h0c6b8ea4a80ee54aE
.Ltmp13:
	movb	%al, -65(%rbp)
	jmp	.LBB14_2
.LBB14_2:
	movb	-65(%rbp), %al
	movb	%al, -33(%rbp)
	movb	-33(%rbp), %al
	incb	%al
	subb	$2, %al
	jb	.LBB14_5
	jmp	.LBB14_14
.LBB14_14:
	jmp	.LBB14_6
	ud2
.LBB14_5:
	movb	$0, -10(%rbp)
	movq	-56(%rbp), %rax
	movq	%rax, -48(%rbp)
	jmp	.LBB14_7
.LBB14_6:
	movb	$0, -9(%rbp)
	movq	-64(%rbp), %rax
	movq	%rax, -48(%rbp)
.LBB14_7:
	testb	$1, -10(%rbp)
	jne	.LBB14_9
.LBB14_8:
	testb	$1, -9(%rbp)
	jne	.LBB14_13
	jmp	.LBB14_12
.LBB14_9:
	jmp	.LBB14_8
.LBB14_12:
	movq	-48(%rbp), %rax
	addq	$112, %rsp
	popq	%rbp
	retq
.LBB14_13:
	jmp	.LBB14_12
	.seh_handlerdata
	.long	($cppxdata$_ZN4core3cmp6max_by17h118efc92c3261ec2E)@IMGREL
	.section	.text,"xr",one_only,_ZN4core3cmp6max_by17h118efc92c3261ec2E
	.seh_endproc
	.def	"?dtor$1@?0?_ZN4core3cmp6max_by17h118efc92c3261ec2E@4HA";
	.scl	3;
	.type	32;
	.endef
	.p2align	4, 0x90
"?dtor$1@?0?_ZN4core3cmp6max_by17h118efc92c3261ec2E@4HA":
.seh_proc "?dtor$1@?0?_ZN4core3cmp6max_by17h118efc92c3261ec2E@4HA"
.LBB14_1:
	movq	%rdx, 16(%rsp)
	pushq	%rbp
	.seh_pushreg %rbp
	subq	$32, %rsp
	.seh_stackalloc 32
	leaq	112(%rdx), %rbp
	.seh_endprologue
	addq	$32, %rsp
	popq	%rbp
	retq
	.seh_handlerdata
	.section	.text,"xr",one_only,_ZN4core3cmp6max_by17h118efc92c3261ec2E
	.seh_endproc
	.def	"?dtor$3@?0?_ZN4core3cmp6max_by17h118efc92c3261ec2E@4HA";
	.scl	3;
	.type	32;
	.endef
	.p2align	4, 0x90
"?dtor$3@?0?_ZN4core3cmp6max_by17h118efc92c3261ec2E@4HA":
.seh_proc "?dtor$3@?0?_ZN4core3cmp6max_by17h118efc92c3261ec2E@4HA"
.LBB14_3:
	movq	%rdx, 16(%rsp)
	pushq	%rbp
	.seh_pushreg %rbp
	subq	$32, %rsp
	.seh_stackalloc 32
	leaq	112(%rdx), %rbp
	.seh_endprologue
	testb	$1, -9(%rbp)
	jne	.LBB14_11
	jmp	.LBB14_10
.LBB14_10:
	addq	$32, %rsp
	popq	%rbp
	retq
.LBB14_11:
	jmp	.LBB14_10
.Lfunc_end2:
	.seh_handlerdata
	.section	.text,"xr",one_only,_ZN4core3cmp6max_by17h118efc92c3261ec2E
	.seh_endproc
	.section	.xdata,"dr",associative,_ZN4core3cmp6max_by17h118efc92c3261ec2E
	.p2align	2, 0x0
$cppxdata$_ZN4core3cmp6max_by17h118efc92c3261ec2E:
	.long	429065506
	.long	2
	.long	($stateUnwindMap$_ZN4core3cmp6max_by17h118efc92c3261ec2E)@IMGREL
	.long	0
	.long	0
	.long	3
	.long	($ip2state$_ZN4core3cmp6max_by17h118efc92c3261ec2E)@IMGREL
	.long	104
	.long	0
	.long	1
$stateUnwindMap$_ZN4core3cmp6max_by17h118efc92c3261ec2E:
	.long	-1
	.long	"?dtor$3@?0?_ZN4core3cmp6max_by17h118efc92c3261ec2E@4HA"@IMGREL
	.long	0
	.long	"?dtor$1@?0?_ZN4core3cmp6max_by17h118efc92c3261ec2E@4HA"@IMGREL
$ip2state$_ZN4core3cmp6max_by17h118efc92c3261ec2E:
	.long	.Lfunc_begin2@IMGREL
	.long	-1
	.long	.Ltmp12@IMGREL+1
	.long	1
	.long	.Ltmp13@IMGREL+1
	.long	-1
	.section	.text,"xr",one_only,_ZN4core3cmp6max_by17h118efc92c3261ec2E

	.def	_ZN4core3fmt3num51_$LT$impl$u20$core..fmt..Debug$u20$for$u20$u128$GT$3fmt17h6ab27be23d922e09E;
	.scl	3;
	.type	32;
	.endef
	.section	.text,"xr",one_only,_ZN4core3fmt3num51_$LT$impl$u20$core..fmt..Debug$u20$for$u20$u128$GT$3fmt17h6ab27be23d922e09E
	.p2align	4, 0x90
_ZN4core3fmt3num51_$LT$impl$u20$core..fmt..Debug$u20$for$u20$u128$GT$3fmt17h6ab27be23d922e09E:
.seh_proc _ZN4core3fmt3num51_$LT$impl$u20$core..fmt..Debug$u20$for$u20$u128$GT$3fmt17h6ab27be23d922e09E
	subq	$56, %rsp
	.seh_stackalloc 56
	.seh_endprologue
	movq	%rdx, 32(%rsp)
	movq	%rcx, %rax
	movq	32(%rsp), %rcx
	movq	%rax, 40(%rsp)
	callq	_ZN4core3fmt9Formatter15debug_lower_hex17h6e020aaa40c20eadE
	testb	$1, %al
	jne	.LBB15_2
	movq	32(%rsp), %rcx
	callq	_ZN4core3fmt9Formatter15debug_upper_hex17hb014114f6f4f9a80E
	testb	$1, %al
	jne	.LBB15_5
	jmp	.LBB15_4
.LBB15_2:
	movq	32(%rsp), %rdx
	movq	40(%rsp), %rcx
	callq	_ZN4core3fmt3num54_$LT$impl$u20$core..fmt..LowerHex$u20$for$u20$u128$GT$3fmt17h4be4a68f6cf5497aE
	andb	$1, %al
	movb	%al, 55(%rsp)
.LBB15_3:
	movb	55(%rsp), %al
	andb	$1, %al
	movzbl	%al, %eax
	addq	$56, %rsp
	retq
.LBB15_4:
	movq	32(%rsp), %rdx
	movq	40(%rsp), %rcx
	callq	_ZN4core3fmt3num53_$LT$impl$u20$core..fmt..Display$u20$for$u20$u128$GT$3fmt17h676cdf23a741e9d3E
	andb	$1, %al
	movb	%al, 55(%rsp)
	jmp	.LBB15_6
.LBB15_5:
	movq	32(%rsp), %rdx
	movq	40(%rsp), %rcx
	callq	_ZN4core3fmt3num54_$LT$impl$u20$core..fmt..UpperHex$u20$for$u20$u128$GT$3fmt17hfdcb73d1fbe65092E
	andb	$1, %al
	movb	%al, 55(%rsp)
.LBB15_6:
	jmp	.LBB15_3
	.seh_endproc

	.def	_ZN4core3fmt3num52_$LT$impl$u20$core..fmt..Debug$u20$for$u20$usize$GT$3fmt17h859759b2daf1bfc3E;
	.scl	3;
	.type	32;
	.endef
	.section	.text,"xr",one_only,_ZN4core3fmt3num52_$LT$impl$u20$core..fmt..Debug$u20$for$u20$usize$GT$3fmt17h859759b2daf1bfc3E
	.p2align	4, 0x90
_ZN4core3fmt3num52_$LT$impl$u20$core..fmt..Debug$u20$for$u20$usize$GT$3fmt17h859759b2daf1bfc3E:
.seh_proc _ZN4core3fmt3num52_$LT$impl$u20$core..fmt..Debug$u20$for$u20$usize$GT$3fmt17h859759b2daf1bfc3E
	subq	$56, %rsp
	.seh_stackalloc 56
	.seh_endprologue
	movq	%rdx, 32(%rsp)
	movq	%rcx, %rax
	movq	32(%rsp), %rcx
	movq	%rax, 40(%rsp)
	callq	_ZN4core3fmt9Formatter15debug_lower_hex17h6e020aaa40c20eadE
	testb	$1, %al
	jne	.LBB16_2
	movq	32(%rsp), %rcx
	callq	_ZN4core3fmt9Formatter15debug_upper_hex17hb014114f6f4f9a80E
	testb	$1, %al
	jne	.LBB16_5
	jmp	.LBB16_4
.LBB16_2:
	movq	32(%rsp), %rdx
	movq	40(%rsp), %rcx
	callq	_ZN4core3fmt3num55_$LT$impl$u20$core..fmt..LowerHex$u20$for$u20$usize$GT$3fmt17hd5f35d873404ca10E
	andb	$1, %al
	movb	%al, 55(%rsp)
.LBB16_3:
	movb	55(%rsp), %al
	andb	$1, %al
	movzbl	%al, %eax
	addq	$56, %rsp
	retq
.LBB16_4:
	movq	32(%rsp), %rdx
	movq	40(%rsp), %rcx
	callq	_ZN4core3fmt3num3imp54_$LT$impl$u20$core..fmt..Display$u20$for$u20$usize$GT$3fmt17he01c04b9155c2518E
	andb	$1, %al
	movb	%al, 55(%rsp)
	jmp	.LBB16_6
.LBB16_5:
	movq	32(%rsp), %rdx
	movq	40(%rsp), %rcx
	callq	_ZN4core3fmt3num55_$LT$impl$u20$core..fmt..UpperHex$u20$for$u20$usize$GT$3fmt17h59c15446f8970f5bE
	andb	$1, %al
	movb	%al, 55(%rsp)
.LBB16_6:
	jmp	.LBB16_3
	.seh_endproc

	.def	_ZN4core3fmt9Arguments6as_str17h23635852bad42a5eE;
	.scl	3;
	.type	32;
	.endef
	.section	.text,"xr",one_only,_ZN4core3fmt9Arguments6as_str17h23635852bad42a5eE
	.p2align	4, 0x90
_ZN4core3fmt9Arguments6as_str17h23635852bad42a5eE:
.seh_proc _ZN4core3fmt9Arguments6as_str17h23635852bad42a5eE
	subq	$48, %rsp
	.seh_stackalloc 48
	.seh_endprologue
	movq	%rcx, %rax
	movq	(%rax), %r8
	movq	8(%rax), %rdx
	movq	16(%rax), %rcx
	movq	24(%rax), %rax
	movq	%r8, 16(%rsp)
	movq	%rdx, 24(%rsp)
	movq	%rcx, 32(%rsp)
	movq	%rax, 40(%rsp)
	cmpq	$0, 24(%rsp)
	je	.LBB17_2
	cmpq	$1, 24(%rsp)
	je	.LBB17_6
	jmp	.LBB17_3
.LBB17_2:
	cmpq	$0, 40(%rsp)
	je	.LBB17_4
.LBB17_3:
	movq	$0, (%rsp)
	jmp	.LBB17_5
.LBB17_4:
	leaq	__unnamed_4(%rip), %rax
	movq	%rax, (%rsp)
	movq	$0, 8(%rsp)
.LBB17_5:
	movq	(%rsp), %rax
	movq	8(%rsp), %rdx
	addq	$48, %rsp
	retq
.LBB17_6:
	cmpq	$0, 40(%rsp)
	jne	.LBB17_3
	movq	16(%rsp), %rax
	movq	(%rax), %rcx
	movq	8(%rax), %rax
	movq	%rcx, (%rsp)
	movq	%rax, 8(%rsp)
	jmp	.LBB17_5
	.seh_endproc

	.def	_ZN4core3fmt9Arguments6new_v117hf2dc02d5e6b78bf7E;
	.scl	3;
	.type	32;
	.endef
	.section	.text,"xr",one_only,_ZN4core3fmt9Arguments6new_v117hf2dc02d5e6b78bf7E
	.p2align	4, 0x90
_ZN4core3fmt9Arguments6new_v117hf2dc02d5e6b78bf7E:
.seh_proc _ZN4core3fmt9Arguments6new_v117hf2dc02d5e6b78bf7E
	subq	$168, %rsp
	.seh_stackalloc 168
	.seh_endprologue
	movq	%r9, 32(%rsp)
	movq	%r8, 40(%rsp)
	movq	%rdx, 48(%rsp)
	movq	%rcx, 56(%rsp)
	movq	%rcx, 64(%rsp)
	movq	208(%rsp), %rax
	movq	%rax, 72(%rsp)
	cmpq	%rax, %r8
	jb	.LBB18_2
	movq	40(%rsp), %rax
	movq	72(%rsp), %rcx
	addq	$1, %rcx
	cmpq	%rcx, %rax
	seta	%al
	andb	$1, %al
	movb	%al, 87(%rsp)
	jmp	.LBB18_3
.LBB18_2:
	movb	$1, 87(%rsp)
.LBB18_3:
	testb	$1, 87(%rsp)
	jne	.LBB18_5
	movq	64(%rsp), %rax
	movq	56(%rsp), %rcx
	movq	72(%rsp), %rdx
	movq	32(%rsp), %r8
	movq	40(%rsp), %r9
	movq	48(%rsp), %r10
	movq	$0, 136(%rsp)
	movq	%r10, (%rcx)
	movq	%r9, 8(%rcx)
	movq	136(%rsp), %r10
	movq	144(%rsp), %r9
	movq	%r10, 32(%rcx)
	movq	%r9, 40(%rcx)
	movq	%r8, 16(%rcx)
	movq	%rdx, 24(%rcx)
	addq	$168, %rsp
	retq
.LBB18_5:
	movq	$0, 152(%rsp)
	leaq	__unnamed_5(%rip), %rax
	movq	%rax, 88(%rsp)
	movq	$1, 96(%rsp)
	movq	152(%rsp), %rcx
	movq	160(%rsp), %rax
	movq	%rcx, 120(%rsp)
	movq	%rax, 128(%rsp)
	leaq	__unnamed_4(%rip), %rax
	movq	%rax, 104(%rsp)
	movq	$0, 112(%rsp)
	leaq	__unnamed_6(%rip), %rdx
	leaq	88(%rsp), %rcx
	callq	_ZN4core9panicking9panic_fmt17h122348c349689487E
	ud2
	.seh_endproc

	.def	_ZN4core3fmt9Arguments9new_const17h4da0eb11f5165001E;
	.scl	3;
	.type	32;
	.endef
	.section	.text,"xr",one_only,_ZN4core3fmt9Arguments9new_const17h4da0eb11f5165001E
	.p2align	4, 0x90
_ZN4core3fmt9Arguments9new_const17h4da0eb11f5165001E:
.seh_proc _ZN4core3fmt9Arguments9new_const17h4da0eb11f5165001E
	subq	$136, %rsp
	.seh_stackalloc 136
	.seh_endprologue
	movq	%r8, 40(%rsp)
	movq	%rdx, 48(%rsp)
	movq	%rcx, 56(%rsp)
	movq	%rcx, 64(%rsp)
	cmpq	$1, %r8
	ja	.LBB19_2
	movq	64(%rsp), %rax
	movq	56(%rsp), %rcx
	movq	40(%rsp), %rdx
	movq	48(%rsp), %r8
	movq	$0, 120(%rsp)
	movq	%r8, (%rcx)
	movq	%rdx, 8(%rcx)
	movq	120(%rsp), %r8
	movq	128(%rsp), %rdx
	movq	%r8, 32(%rcx)
	movq	%rdx, 40(%rcx)
	leaq	__unnamed_4(%rip), %rdx
	movq	%rdx, 16(%rcx)
	movq	$0, 24(%rcx)
	addq	$136, %rsp
	retq
.LBB19_2:
	leaq	__unnamed_5(%rip), %rdx
	leaq	72(%rsp), %rcx
	movq	%rcx, 32(%rsp)
	movl	$1, %r8d
	callq	_ZN4core3fmt9Arguments9new_const17h4da0eb11f5165001E
	movq	32(%rsp), %rcx
	leaq	__unnamed_7(%rip), %rdx
	callq	_ZN4core9panicking9panic_fmt17h122348c349689487E
	ud2
	.seh_endproc

	.def	_ZN4core3ops8function6FnOnce40call_once$u7b$$u7b$vtable.shim$u7d$$u7d$17h0d05e37fff61a43bE;
	.scl	3;
	.type	32;
	.endef
	.section	.text,"xr",one_only,_ZN4core3ops8function6FnOnce40call_once$u7b$$u7b$vtable.shim$u7d$$u7d$17h0d05e37fff61a43bE
	.p2align	4, 0x90
_ZN4core3ops8function6FnOnce40call_once$u7b$$u7b$vtable.shim$u7d$$u7d$17h0d05e37fff61a43bE:
.seh_proc _ZN4core3ops8function6FnOnce40call_once$u7b$$u7b$vtable.shim$u7d$$u7d$17h0d05e37fff61a43bE
	subq	$40, %rsp
	.seh_stackalloc 40
	.seh_endprologue
	movq	(%rcx), %rcx
	callq	_ZN4core3ops8function6FnOnce9call_once17hb708f24d610f2130E
	nop
	addq	$40, %rsp
	retq
	.seh_endproc

	.def	_ZN4core3ops8function6FnOnce9call_once17h0c6b8ea4a80ee54aE;
	.scl	3;
	.type	32;
	.endef
	.section	.text,"xr",one_only,_ZN4core3ops8function6FnOnce9call_once17h0c6b8ea4a80ee54aE
	.p2align	4, 0x90
_ZN4core3ops8function6FnOnce9call_once17h0c6b8ea4a80ee54aE:
.seh_proc _ZN4core3ops8function6FnOnce9call_once17h0c6b8ea4a80ee54aE
	subq	$56, %rsp
	.seh_stackalloc 56
	.seh_endprologue
	movq	%rcx, 40(%rsp)
	movq	%rdx, 48(%rsp)
	movq	40(%rsp), %rcx
	movq	48(%rsp), %rdx
	callq	_ZN4core3cmp5impls50_$LT$impl$u20$core..cmp..Ord$u20$for$u20$usize$GT$3cmp17hc5c70e55b345ecccE
	nop
	addq	$56, %rsp
	retq
	.seh_endproc

	.def	_ZN4core3ops8function6FnOnce9call_once17h364944b8ad11e59eE;
	.scl	3;
	.type	32;
	.endef
	.section	.text,"xr",one_only,_ZN4core3ops8function6FnOnce9call_once17h364944b8ad11e59eE
	.p2align	4, 0x90
_ZN4core3ops8function6FnOnce9call_once17h364944b8ad11e59eE:
.seh_proc _ZN4core3ops8function6FnOnce9call_once17h364944b8ad11e59eE
	subq	$40, %rsp
	.seh_stackalloc 40
	.seh_endprologue
	callq	*%rcx
	nop
	addq	$40, %rsp
	retq
	.seh_endproc

	.def	_ZN4core3ops8function6FnOnce9call_once17h5239783648088350E;
	.scl	3;
	.type	32;
	.endef
	.section	.text,"xr",one_only,_ZN4core3ops8function6FnOnce9call_once17h5239783648088350E
	.p2align	4, 0x90
_ZN4core3ops8function6FnOnce9call_once17h5239783648088350E:
.seh_proc _ZN4core3ops8function6FnOnce9call_once17h5239783648088350E
	subq	$56, %rsp
	.seh_stackalloc 56
	.seh_endprologue
	movq	%rcx, %rax
	movq	%rax, 32(%rsp)
	movq	%rdx, 40(%rsp)
	movq	%r8, 48(%rsp)
	movq	40(%rsp), %rdx
	movq	48(%rsp), %r8
	callq	_ZN5alloc3str56_$LT$impl$u20$alloc..borrow..ToOwned$u20$for$u20$str$GT$8to_owned17h5d1cc46baca3f751E
	movq	32(%rsp), %rax
	addq	$56, %rsp
	retq
	.seh_endproc

	.def	_ZN4core3ops8function6FnOnce9call_once17hb708f24d610f2130E;
	.scl	3;
	.type	32;
	.endef
	.section	.text,"xr",one_only,_ZN4core3ops8function6FnOnce9call_once17hb708f24d610f2130E
	.p2align	4, 0x90
_ZN4core3ops8function6FnOnce9call_once17hb708f24d610f2130E:
.Lfunc_begin3:
.seh_proc _ZN4core3ops8function6FnOnce9call_once17hb708f24d610f2130E
	.seh_handler __CxxFrameHandler3, @unwind, @except
	pushq	%rbp
	.seh_pushreg %rbp
	subq	$64, %rsp
	.seh_stackalloc 64
	leaq	64(%rsp), %rbp
	.seh_setframe %rbp, 64
	.seh_endprologue
	movq	$-2, -8(%rbp)
	movq	%rcx, -16(%rbp)
.Ltmp14:
	leaq	-16(%rbp), %rcx
	callq	_ZN3std2rt10lang_start28_$u7b$$u7b$closure$u7d$$u7d$17h7b3394cf5149f879E
.Ltmp15:
	movl	%eax, -20(%rbp)
	jmp	.LBB24_2
.LBB24_2:
	movl	-20(%rbp), %eax
	addq	$64, %rsp
	popq	%rbp
	retq
	.seh_handlerdata
	.long	($cppxdata$_ZN4core3ops8function6FnOnce9call_once17hb708f24d610f2130E)@IMGREL
	.section	.text,"xr",one_only,_ZN4core3ops8function6FnOnce9call_once17hb708f24d610f2130E
	.seh_endproc
	.def	"?dtor$1@?0?_ZN4core3ops8function6FnOnce9call_once17hb708f24d610f2130E@4HA";
	.scl	3;
	.type	32;
	.endef
	.p2align	4, 0x90
"?dtor$1@?0?_ZN4core3ops8function6FnOnce9call_once17hb708f24d610f2130E@4HA":
.seh_proc "?dtor$1@?0?_ZN4core3ops8function6FnOnce9call_once17hb708f24d610f2130E@4HA"
.LBB24_1:
	movq	%rdx, 16(%rsp)
	pushq	%rbp
	.seh_pushreg %rbp
	subq	$32, %rsp
	.seh_stackalloc 32
	leaq	64(%rdx), %rbp
	.seh_endprologue
	addq	$32, %rsp
	popq	%rbp
	retq
.Lfunc_end3:
	.seh_handlerdata
	.section	.text,"xr",one_only,_ZN4core3ops8function6FnOnce9call_once17hb708f24d610f2130E
	.seh_endproc
	.section	.xdata,"dr",associative,_ZN4core3ops8function6FnOnce9call_once17hb708f24d610f2130E
	.p2align	2, 0x0
$cppxdata$_ZN4core3ops8function6FnOnce9call_once17hb708f24d610f2130E:
	.long	429065506
	.long	1
	.long	($stateUnwindMap$_ZN4core3ops8function6FnOnce9call_once17hb708f24d610f2130E)@IMGREL
	.long	0
	.long	0
	.long	3
	.long	($ip2state$_ZN4core3ops8function6FnOnce9call_once17hb708f24d610f2130E)@IMGREL
	.long	56
	.long	0
	.long	1
$stateUnwindMap$_ZN4core3ops8function6FnOnce9call_once17hb708f24d610f2130E:
	.long	-1
	.long	"?dtor$1@?0?_ZN4core3ops8function6FnOnce9call_once17hb708f24d610f2130E@4HA"@IMGREL
$ip2state$_ZN4core3ops8function6FnOnce9call_once17hb708f24d610f2130E:
	.long	.Lfunc_begin3@IMGREL
	.long	-1
	.long	.Ltmp14@IMGREL+1
	.long	0
	.long	.Ltmp15@IMGREL+1
	.long	-1
	.section	.text,"xr",one_only,_ZN4core3ops8function6FnOnce9call_once17hb708f24d610f2130E

	.def	_ZN4core3ptr180drop_in_place$LT$$LT$alloc..vec..into_iter..IntoIter$LT$T$C$A$GT$$u20$as$u20$core..ops..drop..Drop$GT$..drop..DropGuard$LT$std..ffi..os_str..OsString$C$alloc..alloc..Global$GT$$GT$17h271ef94d1e0fc6e9E;
	.scl	3;
	.type	32;
	.endef
	.section	.text,"xr",one_only,_ZN4core3ptr180drop_in_place$LT$$LT$alloc..vec..into_iter..IntoIter$LT$T$C$A$GT$$u20$as$u20$core..ops..drop..Drop$GT$..drop..DropGuard$LT$std..ffi..os_str..OsString$C$alloc..alloc..Global$GT$$GT$17h271ef94d1e0fc6e9E
	.p2align	4, 0x90
_ZN4core3ptr180drop_in_place$LT$$LT$alloc..vec..into_iter..IntoIter$LT$T$C$A$GT$$u20$as$u20$core..ops..drop..Drop$GT$..drop..DropGuard$LT$std..ffi..os_str..OsString$C$alloc..alloc..Global$GT$$GT$17h271ef94d1e0fc6e9E:
.seh_proc _ZN4core3ptr180drop_in_place$LT$$LT$alloc..vec..into_iter..IntoIter$LT$T$C$A$GT$$u20$as$u20$core..ops..drop..Drop$GT$..drop..DropGuard$LT$std..ffi..os_str..OsString$C$alloc..alloc..Global$GT$$GT$17h271ef94d1e0fc6e9E
	subq	$40, %rsp
	.seh_stackalloc 40
	.seh_endprologue
	callq	_ZN157_$LT$$LT$alloc..vec..into_iter..IntoIter$LT$T$C$A$GT$$u20$as$u20$core..ops..drop..Drop$GT$..drop..DropGuard$LT$T$C$A$GT$$u20$as$u20$core..ops..drop..Drop$GT$4drop17hfe318329980a38deE
	nop
	addq	$40, %rsp
	retq
	.seh_endproc

	.def	_ZN4core3ptr30drop_in_place$LT$$RF$usize$GT$17h8434ea6b8ae69b81E;
	.scl	3;
	.type	32;
	.endef
	.section	.text,"xr",one_only,_ZN4core3ptr30drop_in_place$LT$$RF$usize$GT$17h8434ea6b8ae69b81E
	.p2align	4, 0x90
_ZN4core3ptr30drop_in_place$LT$$RF$usize$GT$17h8434ea6b8ae69b81E:
	retq

	.def	_ZN4core3ptr35drop_in_place$LT$std..env..Args$GT$17h6923adcb80febfdcE;
	.scl	3;
	.type	32;
	.endef
	.section	.text,"xr",one_only,_ZN4core3ptr35drop_in_place$LT$std..env..Args$GT$17h6923adcb80febfdcE
	.p2align	4, 0x90
_ZN4core3ptr35drop_in_place$LT$std..env..Args$GT$17h6923adcb80febfdcE:
.seh_proc _ZN4core3ptr35drop_in_place$LT$std..env..Args$GT$17h6923adcb80febfdcE
	subq	$40, %rsp
	.seh_stackalloc 40
	.seh_endprologue
	callq	_ZN4core3ptr37drop_in_place$LT$std..env..ArgsOs$GT$17h019e6e98fb405a94E
	nop
	addq	$40, %rsp
	retq
	.seh_endproc

	.def	_ZN4core3ptr37drop_in_place$LT$std..env..ArgsOs$GT$17h019e6e98fb405a94E;
	.scl	3;
	.type	32;
	.endef
	.section	.text,"xr",one_only,_ZN4core3ptr37drop_in_place$LT$std..env..ArgsOs$GT$17h019e6e98fb405a94E
	.p2align	4, 0x90
_ZN4core3ptr37drop_in_place$LT$std..env..ArgsOs$GT$17h019e6e98fb405a94E:
.seh_proc _ZN4core3ptr37drop_in_place$LT$std..env..ArgsOs$GT$17h019e6e98fb405a94E
	subq	$40, %rsp
	.seh_stackalloc 40
	.seh_endprologue
	callq	_ZN4core3ptr50drop_in_place$LT$std..sys..windows..args..Args$GT$17h4685b2d2a49b5fe5E
	nop
	addq	$40, %rsp
	retq
	.seh_endproc

	.def	_ZN4core3ptr42drop_in_place$LT$alloc..string..String$GT$17h8b93a42a264a5bd1E;
	.scl	3;
	.type	32;
	.endef
	.section	.text,"xr",one_only,_ZN4core3ptr42drop_in_place$LT$alloc..string..String$GT$17h8b93a42a264a5bd1E
	.p2align	4, 0x90
_ZN4core3ptr42drop_in_place$LT$alloc..string..String$GT$17h8b93a42a264a5bd1E:
.seh_proc _ZN4core3ptr42drop_in_place$LT$alloc..string..String$GT$17h8b93a42a264a5bd1E
	subq	$40, %rsp
	.seh_stackalloc 40
	.seh_endprologue
	callq	_ZN4core3ptr46drop_in_place$LT$alloc..vec..Vec$LT$u8$GT$$GT$17h4a9fec596b7c4678E
	nop
	addq	$40, %rsp
	retq
	.seh_endproc

	.def	_ZN4core3ptr46drop_in_place$LT$alloc..vec..Vec$LT$u8$GT$$GT$17h4a9fec596b7c4678E;
	.scl	3;
	.type	32;
	.endef
	.section	.text,"xr",one_only,_ZN4core3ptr46drop_in_place$LT$alloc..vec..Vec$LT$u8$GT$$GT$17h4a9fec596b7c4678E
	.p2align	4, 0x90
_ZN4core3ptr46drop_in_place$LT$alloc..vec..Vec$LT$u8$GT$$GT$17h4a9fec596b7c4678E:
.Lfunc_begin4:
.seh_proc _ZN4core3ptr46drop_in_place$LT$alloc..vec..Vec$LT$u8$GT$$GT$17h4a9fec596b7c4678E
	.seh_handler __CxxFrameHandler3, @unwind, @except
	pushq	%rbp
	.seh_pushreg %rbp
	subq	$48, %rsp
	.seh_stackalloc 48
	leaq	48(%rsp), %rbp
	.seh_setframe %rbp, 48
	.seh_endprologue
	movq	$-2, -8(%rbp)
	movq	%rcx, -16(%rbp)
.Ltmp16:
	callq	_ZN70_$LT$alloc..vec..Vec$LT$T$C$A$GT$$u20$as$u20$core..ops..drop..Drop$GT$4drop17hf5b847e533c55ae3E
.Ltmp17:
	jmp	.LBB30_2
.LBB30_2:
	movq	-16(%rbp), %rcx
	callq	_ZN4core3ptr53drop_in_place$LT$alloc..raw_vec..RawVec$LT$u8$GT$$GT$17hc7f857b5157ee727E
	nop
	addq	$48, %rsp
	popq	%rbp
	retq
	.seh_handlerdata
	.long	($cppxdata$_ZN4core3ptr46drop_in_place$LT$alloc..vec..Vec$LT$u8$GT$$GT$17h4a9fec596b7c4678E)@IMGREL
	.section	.text,"xr",one_only,_ZN4core3ptr46drop_in_place$LT$alloc..vec..Vec$LT$u8$GT$$GT$17h4a9fec596b7c4678E
	.seh_endproc
	.def	"?dtor$1@?0?_ZN4core3ptr46drop_in_place$LT$alloc..vec..Vec$LT$u8$GT$$GT$17h4a9fec596b7c4678E@4HA";
	.scl	3;
	.type	32;
	.endef
	.p2align	4, 0x90
"?dtor$1@?0?_ZN4core3ptr46drop_in_place$LT$alloc..vec..Vec$LT$u8$GT$$GT$17h4a9fec596b7c4678E@4HA":
.seh_proc "?dtor$1@?0?_ZN4core3ptr46drop_in_place$LT$alloc..vec..Vec$LT$u8$GT$$GT$17h4a9fec596b7c4678E@4HA"
.LBB30_1:
	movq	%rdx, 16(%rsp)
	pushq	%rbp
	.seh_pushreg %rbp
	subq	$32, %rsp
	.seh_stackalloc 32
	leaq	48(%rdx), %rbp
	.seh_endprologue
	movq	-16(%rbp), %rcx
	callq	_ZN4core3ptr53drop_in_place$LT$alloc..raw_vec..RawVec$LT$u8$GT$$GT$17hc7f857b5157ee727E
	nop
	addq	$32, %rsp
	popq	%rbp
	retq
.Lfunc_end4:
	.seh_handlerdata
	.section	.text,"xr",one_only,_ZN4core3ptr46drop_in_place$LT$alloc..vec..Vec$LT$u8$GT$$GT$17h4a9fec596b7c4678E
	.seh_endproc
	.section	.xdata,"dr",associative,_ZN4core3ptr46drop_in_place$LT$alloc..vec..Vec$LT$u8$GT$$GT$17h4a9fec596b7c4678E
	.p2align	2, 0x0
$cppxdata$_ZN4core3ptr46drop_in_place$LT$alloc..vec..Vec$LT$u8$GT$$GT$17h4a9fec596b7c4678E:
	.long	429065506
	.long	1
	.long	($stateUnwindMap$_ZN4core3ptr46drop_in_place$LT$alloc..vec..Vec$LT$u8$GT$$GT$17h4a9fec596b7c4678E)@IMGREL
	.long	0
	.long	0
	.long	3
	.long	($ip2state$_ZN4core3ptr46drop_in_place$LT$alloc..vec..Vec$LT$u8$GT$$GT$17h4a9fec596b7c4678E)@IMGREL
	.long	40
	.long	0
	.long	1
$stateUnwindMap$_ZN4core3ptr46drop_in_place$LT$alloc..vec..Vec$LT$u8$GT$$GT$17h4a9fec596b7c4678E:
	.long	-1
	.long	"?dtor$1@?0?_ZN4core3ptr46drop_in_place$LT$alloc..vec..Vec$LT$u8$GT$$GT$17h4a9fec596b7c4678E@4HA"@IMGREL
$ip2state$_ZN4core3ptr46drop_in_place$LT$alloc..vec..Vec$LT$u8$GT$$GT$17h4a9fec596b7c4678E:
	.long	.Lfunc_begin4@IMGREL
	.long	-1
	.long	.Ltmp16@IMGREL+1
	.long	0
	.long	.Ltmp17@IMGREL+1
	.long	-1
	.section	.text,"xr",one_only,_ZN4core3ptr46drop_in_place$LT$alloc..vec..Vec$LT$u8$GT$$GT$17h4a9fec596b7c4678E

	.def	_ZN4core3ptr47drop_in_place$LT$std..ffi..os_str..OsString$GT$17hba4646864eafe080E;
	.scl	3;
	.type	32;
	.endef
	.section	.text,"xr",one_only,_ZN4core3ptr47drop_in_place$LT$std..ffi..os_str..OsString$GT$17hba4646864eafe080E
	.p2align	4, 0x90
_ZN4core3ptr47drop_in_place$LT$std..ffi..os_str..OsString$GT$17hba4646864eafe080E:
.seh_proc _ZN4core3ptr47drop_in_place$LT$std..ffi..os_str..OsString$GT$17hba4646864eafe080E
	subq	$40, %rsp
	.seh_stackalloc 40
	.seh_endprologue
	callq	_ZN4core3ptr51drop_in_place$LT$std..sys..windows..os_str..Buf$GT$17h1a58b4a9365288ddE
	nop
	addq	$40, %rsp
	retq
	.seh_endproc

	.def	_ZN4core3ptr47drop_in_place$LT$std..time..SystemTimeError$GT$17hdc4adebf8240c588E;
	.scl	3;
	.type	32;
	.endef
	.section	.text,"xr",one_only,_ZN4core3ptr47drop_in_place$LT$std..time..SystemTimeError$GT$17hdc4adebf8240c588E
	.p2align	4, 0x90
_ZN4core3ptr47drop_in_place$LT$std..time..SystemTimeError$GT$17hdc4adebf8240c588E:
	retq

	.def	_ZN4core3ptr50drop_in_place$LT$std..sys..windows..args..Args$GT$17h4685b2d2a49b5fe5E;
	.scl	3;
	.type	32;
	.endef
	.section	.text,"xr",one_only,_ZN4core3ptr50drop_in_place$LT$std..sys..windows..args..Args$GT$17h4685b2d2a49b5fe5E
	.p2align	4, 0x90
_ZN4core3ptr50drop_in_place$LT$std..sys..windows..args..Args$GT$17h4685b2d2a49b5fe5E:
.seh_proc _ZN4core3ptr50drop_in_place$LT$std..sys..windows..args..Args$GT$17h4685b2d2a49b5fe5E
	subq	$40, %rsp
	.seh_stackalloc 40
	.seh_endprologue
	callq	_ZN4core3ptr86drop_in_place$LT$alloc..vec..into_iter..IntoIter$LT$std..ffi..os_str..OsString$GT$$GT$17h3868849567d529bbE
	nop
	addq	$40, %rsp
	retq
	.seh_endproc

	.def	_ZN4core3ptr51drop_in_place$LT$std..sys..windows..os_str..Buf$GT$17h1a58b4a9365288ddE;
	.scl	3;
	.type	32;
	.endef
	.section	.text,"xr",one_only,_ZN4core3ptr51drop_in_place$LT$std..sys..windows..os_str..Buf$GT$17h1a58b4a9365288ddE
	.p2align	4, 0x90
_ZN4core3ptr51drop_in_place$LT$std..sys..windows..os_str..Buf$GT$17h1a58b4a9365288ddE:
.seh_proc _ZN4core3ptr51drop_in_place$LT$std..sys..windows..os_str..Buf$GT$17h1a58b4a9365288ddE
	subq	$40, %rsp
	.seh_stackalloc 40
	.seh_endprologue
	callq	_ZN4core3ptr51drop_in_place$LT$std..sys_common..wtf8..Wtf8Buf$GT$17h73ed9f682e78d106E
	nop
	addq	$40, %rsp
	retq
	.seh_endproc

	.def	_ZN4core3ptr51drop_in_place$LT$std..sys_common..wtf8..Wtf8Buf$GT$17h73ed9f682e78d106E;
	.scl	3;
	.type	32;
	.endef
	.section	.text,"xr",one_only,_ZN4core3ptr51drop_in_place$LT$std..sys_common..wtf8..Wtf8Buf$GT$17h73ed9f682e78d106E
	.p2align	4, 0x90
_ZN4core3ptr51drop_in_place$LT$std..sys_common..wtf8..Wtf8Buf$GT$17h73ed9f682e78d106E:
.seh_proc _ZN4core3ptr51drop_in_place$LT$std..sys_common..wtf8..Wtf8Buf$GT$17h73ed9f682e78d106E
	subq	$40, %rsp
	.seh_stackalloc 40
	.seh_endprologue
	callq	_ZN4core3ptr46drop_in_place$LT$alloc..vec..Vec$LT$u8$GT$$GT$17h4a9fec596b7c4678E
	nop
	addq	$40, %rsp
	retq
	.seh_endproc

	.def	_ZN4core3ptr52drop_in_place$LT$$u5b$alloc..string..String$u5d$$GT$17h3f3e0fc9b5bd7074E;
	.scl	3;
	.type	32;
	.endef
	.section	.text,"xr",one_only,_ZN4core3ptr52drop_in_place$LT$$u5b$alloc..string..String$u5d$$GT$17h3f3e0fc9b5bd7074E
	.p2align	4, 0x90
_ZN4core3ptr52drop_in_place$LT$$u5b$alloc..string..String$u5d$$GT$17h3f3e0fc9b5bd7074E:
.Lfunc_begin5:
.seh_proc _ZN4core3ptr52drop_in_place$LT$$u5b$alloc..string..String$u5d$$GT$17h3f3e0fc9b5bd7074E
	.seh_handler __CxxFrameHandler3, @unwind, @except
	pushq	%rbp
	.seh_pushreg %rbp
	subq	$64, %rsp
	.seh_stackalloc 64
	leaq	64(%rsp), %rbp
	.seh_setframe %rbp, 64
	.seh_endprologue
	movq	$-2, -8(%rbp)
	movq	%rdx, -32(%rbp)
	movq	%rcx, -24(%rbp)
	movq	$0, -16(%rbp)
.LBB36_1:
	movq	-32(%rbp), %rax
	cmpq	%rax, -16(%rbp)
	je	.LBB36_3
	movq	-24(%rbp), %rcx
	movq	-16(%rbp), %rax
	leaq	(%rax,%rax,2), %rdx
	leaq	(%rcx,%rdx,8), %rcx
	incq	%rax
	movq	%rax, -16(%rbp)
.Ltmp18:
	callq	_ZN4core3ptr42drop_in_place$LT$alloc..string..String$GT$17h8b93a42a264a5bd1E
.Ltmp19:
	jmp	.LBB36_1
.LBB36_3:
	addq	$64, %rsp
	popq	%rbp
	retq
.LBB36_4:
	movq	-32(%rbp), %rax
	cmpq	%rax, -16(%rbp)
	je	.LBB36_7
	jmp	.LBB36_6
	.seh_handlerdata
	.long	($cppxdata$_ZN4core3ptr52drop_in_place$LT$$u5b$alloc..string..String$u5d$$GT$17h3f3e0fc9b5bd7074E)@IMGREL
	.section	.text,"xr",one_only,_ZN4core3ptr52drop_in_place$LT$$u5b$alloc..string..String$u5d$$GT$17h3f3e0fc9b5bd7074E
	.seh_endproc
	.def	"?dtor$5@?0?_ZN4core3ptr52drop_in_place$LT$$u5b$alloc..string..String$u5d$$GT$17h3f3e0fc9b5bd7074E@4HA";
	.scl	3;
	.type	32;
	.endef
	.p2align	4, 0x90
"?dtor$5@?0?_ZN4core3ptr52drop_in_place$LT$$u5b$alloc..string..String$u5d$$GT$17h3f3e0fc9b5bd7074E@4HA":
.seh_proc "?dtor$5@?0?_ZN4core3ptr52drop_in_place$LT$$u5b$alloc..string..String$u5d$$GT$17h3f3e0fc9b5bd7074E@4HA"
.LBB36_5:
	movq	%rdx, 16(%rsp)
	pushq	%rbp
	.seh_pushreg %rbp
	subq	$32, %rsp
	.seh_stackalloc 32
	leaq	64(%rdx), %rbp
	.seh_endprologue
	jmp	.LBB36_4
.LBB36_6:
	movq	-24(%rbp), %rcx
	imulq	$24, -16(%rbp), %rax
	addq	%rax, %rcx
	movq	-16(%rbp), %rax
	addq	$1, %rax
	movq	%rax, -16(%rbp)
	callq	_ZN4core3ptr42drop_in_place$LT$alloc..string..String$GT$17h8b93a42a264a5bd1E
	jmp	.LBB36_4
.LBB36_7:
	addq	$32, %rsp
	popq	%rbp
	retq
.Lfunc_end5:
	.seh_handlerdata
	.section	.text,"xr",one_only,_ZN4core3ptr52drop_in_place$LT$$u5b$alloc..string..String$u5d$$GT$17h3f3e0fc9b5bd7074E
	.seh_endproc
	.section	.xdata,"dr",associative,_ZN4core3ptr52drop_in_place$LT$$u5b$alloc..string..String$u5d$$GT$17h3f3e0fc9b5bd7074E
	.p2align	2, 0x0
$cppxdata$_ZN4core3ptr52drop_in_place$LT$$u5b$alloc..string..String$u5d$$GT$17h3f3e0fc9b5bd7074E:
	.long	429065506
	.long	1
	.long	($stateUnwindMap$_ZN4core3ptr52drop_in_place$LT$$u5b$alloc..string..String$u5d$$GT$17h3f3e0fc9b5bd7074E)@IMGREL
	.long	0
	.long	0
	.long	3
	.long	($ip2state$_ZN4core3ptr52drop_in_place$LT$$u5b$alloc..string..String$u5d$$GT$17h3f3e0fc9b5bd7074E)@IMGREL
	.long	56
	.long	0
	.long	1
$stateUnwindMap$_ZN4core3ptr52drop_in_place$LT$$u5b$alloc..string..String$u5d$$GT$17h3f3e0fc9b5bd7074E:
	.long	-1
	.long	"?dtor$5@?0?_ZN4core3ptr52drop_in_place$LT$$u5b$alloc..string..String$u5d$$GT$17h3f3e0fc9b5bd7074E@4HA"@IMGREL
$ip2state$_ZN4core3ptr52drop_in_place$LT$$u5b$alloc..string..String$u5d$$GT$17h3f3e0fc9b5bd7074E:
	.long	.Lfunc_begin5@IMGREL
	.long	-1
	.long	.Ltmp18@IMGREL+1
	.long	0
	.long	.Ltmp19@IMGREL+1
	.long	-1
	.section	.text,"xr",one_only,_ZN4core3ptr52drop_in_place$LT$$u5b$alloc..string..String$u5d$$GT$17h3f3e0fc9b5bd7074E

	.def	_ZN4core3ptr52drop_in_place$LT$core..num..error..ParseIntError$GT$17hed18b906ac0d449dE;
	.scl	3;
	.type	32;
	.endef
	.section	.text,"xr",one_only,_ZN4core3ptr52drop_in_place$LT$core..num..error..ParseIntError$GT$17hed18b906ac0d449dE
	.p2align	4, 0x90
_ZN4core3ptr52drop_in_place$LT$core..num..error..ParseIntError$GT$17hed18b906ac0d449dE:
	retq

	.def	_ZN4core3ptr53drop_in_place$LT$alloc..raw_vec..RawVec$LT$u8$GT$$GT$17hc7f857b5157ee727E;
	.scl	3;
	.type	32;
	.endef
	.section	.text,"xr",one_only,_ZN4core3ptr53drop_in_place$LT$alloc..raw_vec..RawVec$LT$u8$GT$$GT$17hc7f857b5157ee727E
	.p2align	4, 0x90
_ZN4core3ptr53drop_in_place$LT$alloc..raw_vec..RawVec$LT$u8$GT$$GT$17hc7f857b5157ee727E:
.seh_proc _ZN4core3ptr53drop_in_place$LT$alloc..raw_vec..RawVec$LT$u8$GT$$GT$17hc7f857b5157ee727E
	subq	$40, %rsp
	.seh_stackalloc 40
	.seh_endprologue
	callq	_ZN77_$LT$alloc..raw_vec..RawVec$LT$T$C$A$GT$$u20$as$u20$core..ops..drop..Drop$GT$4drop17h55205db2393db71dE
	nop
	addq	$40, %rsp
	retq
	.seh_endproc

	.def	_ZN4core3ptr57drop_in_place$LT$$u5b$std..ffi..os_str..OsString$u5d$$GT$17h71ea883d3edc3d89E;
	.scl	3;
	.type	32;
	.endef
	.section	.text,"xr",one_only,_ZN4core3ptr57drop_in_place$LT$$u5b$std..ffi..os_str..OsString$u5d$$GT$17h71ea883d3edc3d89E
	.p2align	4, 0x90
_ZN4core3ptr57drop_in_place$LT$$u5b$std..ffi..os_str..OsString$u5d$$GT$17h71ea883d3edc3d89E:
.Lfunc_begin6:
.seh_proc _ZN4core3ptr57drop_in_place$LT$$u5b$std..ffi..os_str..OsString$u5d$$GT$17h71ea883d3edc3d89E
	.seh_handler __CxxFrameHandler3, @unwind, @except
	pushq	%rbp
	.seh_pushreg %rbp
	subq	$64, %rsp
	.seh_stackalloc 64
	leaq	64(%rsp), %rbp
	.seh_setframe %rbp, 64
	.seh_endprologue
	movq	$-2, -8(%rbp)
	movq	%rdx, -32(%rbp)
	movq	%rcx, -24(%rbp)
	movq	$0, -16(%rbp)
.LBB39_1:
	movq	-32(%rbp), %rax
	cmpq	%rax, -16(%rbp)
	je	.LBB39_3
	movq	-24(%rbp), %rcx
	movq	-16(%rbp), %rax
	movq	%rax, %rdx
	shlq	$5, %rdx
	addq	%rdx, %rcx
	incq	%rax
	movq	%rax, -16(%rbp)
.Ltmp20:
	callq	_ZN4core3ptr47drop_in_place$LT$std..ffi..os_str..OsString$GT$17hba4646864eafe080E
.Ltmp21:
	jmp	.LBB39_1
.LBB39_3:
	addq	$64, %rsp
	popq	%rbp
	retq
.LBB39_4:
	movq	-32(%rbp), %rax
	cmpq	%rax, -16(%rbp)
	je	.LBB39_7
	jmp	.LBB39_6
	.seh_handlerdata
	.long	($cppxdata$_ZN4core3ptr57drop_in_place$LT$$u5b$std..ffi..os_str..OsString$u5d$$GT$17h71ea883d3edc3d89E)@IMGREL
	.section	.text,"xr",one_only,_ZN4core3ptr57drop_in_place$LT$$u5b$std..ffi..os_str..OsString$u5d$$GT$17h71ea883d3edc3d89E
	.seh_endproc
	.def	"?dtor$5@?0?_ZN4core3ptr57drop_in_place$LT$$u5b$std..ffi..os_str..OsString$u5d$$GT$17h71ea883d3edc3d89E@4HA";
	.scl	3;
	.type	32;
	.endef
	.p2align	4, 0x90
"?dtor$5@?0?_ZN4core3ptr57drop_in_place$LT$$u5b$std..ffi..os_str..OsString$u5d$$GT$17h71ea883d3edc3d89E@4HA":
.seh_proc "?dtor$5@?0?_ZN4core3ptr57drop_in_place$LT$$u5b$std..ffi..os_str..OsString$u5d$$GT$17h71ea883d3edc3d89E@4HA"
.LBB39_5:
	movq	%rdx, 16(%rsp)
	pushq	%rbp
	.seh_pushreg %rbp
	subq	$32, %rsp
	.seh_stackalloc 32
	leaq	64(%rdx), %rbp
	.seh_endprologue
	jmp	.LBB39_4
.LBB39_6:
	movq	-24(%rbp), %rcx
	movq	-16(%rbp), %rax
	shlq	$5, %rax
	addq	%rax, %rcx
	movq	-16(%rbp), %rax
	addq	$1, %rax
	movq	%rax, -16(%rbp)
	callq	_ZN4core3ptr47drop_in_place$LT$std..ffi..os_str..OsString$GT$17hba4646864eafe080E
	jmp	.LBB39_4
.LBB39_7:
	addq	$32, %rsp
	popq	%rbp
	retq
.Lfunc_end6:
	.seh_handlerdata
	.section	.text,"xr",one_only,_ZN4core3ptr57drop_in_place$LT$$u5b$std..ffi..os_str..OsString$u5d$$GT$17h71ea883d3edc3d89E
	.seh_endproc
	.section	.xdata,"dr",associative,_ZN4core3ptr57drop_in_place$LT$$u5b$std..ffi..os_str..OsString$u5d$$GT$17h71ea883d3edc3d89E
	.p2align	2, 0x0
$cppxdata$_ZN4core3ptr57drop_in_place$LT$$u5b$std..ffi..os_str..OsString$u5d$$GT$17h71ea883d3edc3d89E:
	.long	429065506
	.long	1
	.long	($stateUnwindMap$_ZN4core3ptr57drop_in_place$LT$$u5b$std..ffi..os_str..OsString$u5d$$GT$17h71ea883d3edc3d89E)@IMGREL
	.long	0
	.long	0
	.long	3
	.long	($ip2state$_ZN4core3ptr57drop_in_place$LT$$u5b$std..ffi..os_str..OsString$u5d$$GT$17h71ea883d3edc3d89E)@IMGREL
	.long	56
	.long	0
	.long	1
$stateUnwindMap$_ZN4core3ptr57drop_in_place$LT$$u5b$std..ffi..os_str..OsString$u5d$$GT$17h71ea883d3edc3d89E:
	.long	-1
	.long	"?dtor$5@?0?_ZN4core3ptr57drop_in_place$LT$$u5b$std..ffi..os_str..OsString$u5d$$GT$17h71ea883d3edc3d89E@4HA"@IMGREL
$ip2state$_ZN4core3ptr57drop_in_place$LT$$u5b$std..ffi..os_str..OsString$u5d$$GT$17h71ea883d3edc3d89E:
	.long	.Lfunc_begin6@IMGREL
	.long	-1
	.long	.Ltmp20@IMGREL+1
	.long	0
	.long	.Ltmp21@IMGREL+1
	.long	-1
	.section	.text,"xr",one_only,_ZN4core3ptr57drop_in_place$LT$$u5b$std..ffi..os_str..OsString$u5d$$GT$17h71ea883d3edc3d89E

	.def	_ZN4core3ptr58drop_in_place$LT$$RF$core..option..Option$LT$usize$GT$$GT$17hee5109b1a49f7bfdE;
	.scl	3;
	.type	32;
	.endef
	.section	.text,"xr",one_only,_ZN4core3ptr58drop_in_place$LT$$RF$core..option..Option$LT$usize$GT$$GT$17hee5109b1a49f7bfdE
	.p2align	4, 0x90
_ZN4core3ptr58drop_in_place$LT$$RF$core..option..Option$LT$usize$GT$$GT$17hee5109b1a49f7bfdE:
	retq

	.def	_ZN4core3ptr65drop_in_place$LT$alloc..vec..Vec$LT$alloc..string..String$GT$$GT$17h13469b5dd60fd579E;
	.scl	3;
	.type	32;
	.endef
	.section	.text,"xr",one_only,_ZN4core3ptr65drop_in_place$LT$alloc..vec..Vec$LT$alloc..string..String$GT$$GT$17h13469b5dd60fd579E
	.p2align	4, 0x90
_ZN4core3ptr65drop_in_place$LT$alloc..vec..Vec$LT$alloc..string..String$GT$$GT$17h13469b5dd60fd579E:
.Lfunc_begin7:
.seh_proc _ZN4core3ptr65drop_in_place$LT$alloc..vec..Vec$LT$alloc..string..String$GT$$GT$17h13469b5dd60fd579E
	.seh_handler __CxxFrameHandler3, @unwind, @except
	pushq	%rbp
	.seh_pushreg %rbp
	subq	$48, %rsp
	.seh_stackalloc 48
	leaq	48(%rsp), %rbp
	.seh_setframe %rbp, 48
	.seh_endprologue
	movq	$-2, -8(%rbp)
	movq	%rcx, -16(%rbp)
.Ltmp22:
	callq	_ZN70_$LT$alloc..vec..Vec$LT$T$C$A$GT$$u20$as$u20$core..ops..drop..Drop$GT$4drop17hbf4041e70a82aa7cE
.Ltmp23:
	jmp	.LBB41_2
.LBB41_2:
	movq	-16(%rbp), %rcx
	callq	_ZN4core3ptr72drop_in_place$LT$alloc..raw_vec..RawVec$LT$alloc..string..String$GT$$GT$17h99a43e6a4a290bc4E
	nop
	addq	$48, %rsp
	popq	%rbp
	retq
	.seh_handlerdata
	.long	($cppxdata$_ZN4core3ptr65drop_in_place$LT$alloc..vec..Vec$LT$alloc..string..String$GT$$GT$17h13469b5dd60fd579E)@IMGREL
	.section	.text,"xr",one_only,_ZN4core3ptr65drop_in_place$LT$alloc..vec..Vec$LT$alloc..string..String$GT$$GT$17h13469b5dd60fd579E
	.seh_endproc
	.def	"?dtor$1@?0?_ZN4core3ptr65drop_in_place$LT$alloc..vec..Vec$LT$alloc..string..String$GT$$GT$17h13469b5dd60fd579E@4HA";
	.scl	3;
	.type	32;
	.endef
	.p2align	4, 0x90
"?dtor$1@?0?_ZN4core3ptr65drop_in_place$LT$alloc..vec..Vec$LT$alloc..string..String$GT$$GT$17h13469b5dd60fd579E@4HA":
.seh_proc "?dtor$1@?0?_ZN4core3ptr65drop_in_place$LT$alloc..vec..Vec$LT$alloc..string..String$GT$$GT$17h13469b5dd60fd579E@4HA"
.LBB41_1:
	movq	%rdx, 16(%rsp)
	pushq	%rbp
	.seh_pushreg %rbp
	subq	$32, %rsp
	.seh_stackalloc 32
	leaq	48(%rdx), %rbp
	.seh_endprologue
	movq	-16(%rbp), %rcx
	callq	_ZN4core3ptr72drop_in_place$LT$alloc..raw_vec..RawVec$LT$alloc..string..String$GT$$GT$17h99a43e6a4a290bc4E
	nop
	addq	$32, %rsp
	popq	%rbp
	retq
.Lfunc_end7:
	.seh_handlerdata
	.section	.text,"xr",one_only,_ZN4core3ptr65drop_in_place$LT$alloc..vec..Vec$LT$alloc..string..String$GT$$GT$17h13469b5dd60fd579E
	.seh_endproc
	.section	.xdata,"dr",associative,_ZN4core3ptr65drop_in_place$LT$alloc..vec..Vec$LT$alloc..string..String$GT$$GT$17h13469b5dd60fd579E
	.p2align	2, 0x0
$cppxdata$_ZN4core3ptr65drop_in_place$LT$alloc..vec..Vec$LT$alloc..string..String$GT$$GT$17h13469b5dd60fd579E:
	.long	429065506
	.long	1
	.long	($stateUnwindMap$_ZN4core3ptr65drop_in_place$LT$alloc..vec..Vec$LT$alloc..string..String$GT$$GT$17h13469b5dd60fd579E)@IMGREL
	.long	0
	.long	0
	.long	3
	.long	($ip2state$_ZN4core3ptr65drop_in_place$LT$alloc..vec..Vec$LT$alloc..string..String$GT$$GT$17h13469b5dd60fd579E)@IMGREL
	.long	40
	.long	0
	.long	1
$stateUnwindMap$_ZN4core3ptr65drop_in_place$LT$alloc..vec..Vec$LT$alloc..string..String$GT$$GT$17h13469b5dd60fd579E:
	.long	-1
	.long	"?dtor$1@?0?_ZN4core3ptr65drop_in_place$LT$alloc..vec..Vec$LT$alloc..string..String$GT$$GT$17h13469b5dd60fd579E@4HA"@IMGREL
$ip2state$_ZN4core3ptr65drop_in_place$LT$alloc..vec..Vec$LT$alloc..string..String$GT$$GT$17h13469b5dd60fd579E:
	.long	.Lfunc_begin7@IMGREL
	.long	-1
	.long	.Ltmp22@IMGREL+1
	.long	0
	.long	.Ltmp23@IMGREL+1
	.long	-1
	.section	.text,"xr",one_only,_ZN4core3ptr65drop_in_place$LT$alloc..vec..Vec$LT$alloc..string..String$GT$$GT$17h13469b5dd60fd579E

	.def	_ZN4core3ptr70drop_in_place$LT$core..option..Option$LT$alloc..string..String$GT$$GT$17h6860faea33d85067E;
	.scl	3;
	.type	32;
	.endef
	.section	.text,"xr",one_only,_ZN4core3ptr70drop_in_place$LT$core..option..Option$LT$alloc..string..String$GT$$GT$17h6860faea33d85067E
	.p2align	4, 0x90
_ZN4core3ptr70drop_in_place$LT$core..option..Option$LT$alloc..string..String$GT$$GT$17h6860faea33d85067E:
.seh_proc _ZN4core3ptr70drop_in_place$LT$core..option..Option$LT$alloc..string..String$GT$$GT$17h6860faea33d85067E
	subq	$40, %rsp
	.seh_stackalloc 40
	.seh_endprologue
	movq	%rcx, 32(%rsp)
	movq	(%rcx), %rdx
	movl	$1, %eax
	xorl	%ecx, %ecx
	cmpq	$0, %rdx
	cmoveq	%rcx, %rax
	cmpq	$0, %rax
	jne	.LBB42_2
.LBB42_1:
	addq	$40, %rsp
	retq
.LBB42_2:
	movq	32(%rsp), %rcx
	callq	_ZN4core3ptr42drop_in_place$LT$alloc..string..String$GT$17h8b93a42a264a5bd1E
	jmp	.LBB42_1
	.seh_endproc

	.def	_ZN4core3ptr72drop_in_place$LT$alloc..raw_vec..RawVec$LT$alloc..string..String$GT$$GT$17h99a43e6a4a290bc4E;
	.scl	3;
	.type	32;
	.endef
	.section	.text,"xr",one_only,_ZN4core3ptr72drop_in_place$LT$alloc..raw_vec..RawVec$LT$alloc..string..String$GT$$GT$17h99a43e6a4a290bc4E
	.p2align	4, 0x90
_ZN4core3ptr72drop_in_place$LT$alloc..raw_vec..RawVec$LT$alloc..string..String$GT$$GT$17h99a43e6a4a290bc4E:
.seh_proc _ZN4core3ptr72drop_in_place$LT$alloc..raw_vec..RawVec$LT$alloc..string..String$GT$$GT$17h99a43e6a4a290bc4E
	subq	$40, %rsp
	.seh_stackalloc 40
	.seh_endprologue
	callq	_ZN77_$LT$alloc..raw_vec..RawVec$LT$T$C$A$GT$$u20$as$u20$core..ops..drop..Drop$GT$4drop17ha4ab6b0b19e96623E
	nop
	addq	$40, %rsp
	retq
	.seh_endproc

	.def	_ZN4core3ptr77drop_in_place$LT$alloc..raw_vec..RawVec$LT$std..ffi..os_str..OsString$GT$$GT$17h59513c7d11e4c02fE;
	.scl	3;
	.type	32;
	.endef
	.section	.text,"xr",one_only,_ZN4core3ptr77drop_in_place$LT$alloc..raw_vec..RawVec$LT$std..ffi..os_str..OsString$GT$$GT$17h59513c7d11e4c02fE
	.p2align	4, 0x90
_ZN4core3ptr77drop_in_place$LT$alloc..raw_vec..RawVec$LT$std..ffi..os_str..OsString$GT$$GT$17h59513c7d11e4c02fE:
.seh_proc _ZN4core3ptr77drop_in_place$LT$alloc..raw_vec..RawVec$LT$std..ffi..os_str..OsString$GT$$GT$17h59513c7d11e4c02fE
	subq	$40, %rsp
	.seh_stackalloc 40
	.seh_endprologue
	callq	_ZN77_$LT$alloc..raw_vec..RawVec$LT$T$C$A$GT$$u20$as$u20$core..ops..drop..Drop$GT$4drop17h8731243e8d5c3860E
	nop
	addq	$40, %rsp
	retq
	.seh_endproc

	.def	_ZN4core3ptr85drop_in_place$LT$std..rt..lang_start$LT$$LP$$RP$$GT$..$u7b$$u7b$closure$u7d$$u7d$$GT$17h9f9f6eec81c0ab45E;
	.scl	3;
	.type	32;
	.endef
	.section	.text,"xr",one_only,_ZN4core3ptr85drop_in_place$LT$std..rt..lang_start$LT$$LP$$RP$$GT$..$u7b$$u7b$closure$u7d$$u7d$$GT$17h9f9f6eec81c0ab45E
	.p2align	4, 0x90
_ZN4core3ptr85drop_in_place$LT$std..rt..lang_start$LT$$LP$$RP$$GT$..$u7b$$u7b$closure$u7d$$u7d$$GT$17h9f9f6eec81c0ab45E:
	retq

	.def	_ZN4core3ptr86drop_in_place$LT$alloc..vec..into_iter..IntoIter$LT$std..ffi..os_str..OsString$GT$$GT$17h3868849567d529bbE;
	.scl	3;
	.type	32;
	.endef
	.section	.text,"xr",one_only,_ZN4core3ptr86drop_in_place$LT$alloc..vec..into_iter..IntoIter$LT$std..ffi..os_str..OsString$GT$$GT$17h3868849567d529bbE
	.p2align	4, 0x90
_ZN4core3ptr86drop_in_place$LT$alloc..vec..into_iter..IntoIter$LT$std..ffi..os_str..OsString$GT$$GT$17h3868849567d529bbE:
.seh_proc _ZN4core3ptr86drop_in_place$LT$alloc..vec..into_iter..IntoIter$LT$std..ffi..os_str..OsString$GT$$GT$17h3868849567d529bbE
	subq	$40, %rsp
	.seh_stackalloc 40
	.seh_endprologue
	callq	_ZN86_$LT$alloc..vec..into_iter..IntoIter$LT$T$C$A$GT$$u20$as$u20$core..ops..drop..Drop$GT$4drop17hfc831a621a2f2292E
	nop
	addq	$40, %rsp
	retq
	.seh_endproc

	.def	_ZN4core3str11validations15next_code_point17h99066f8c2695e172E;
	.scl	3;
	.type	32;
	.endef
	.section	.text,"xr",one_only,_ZN4core3str11validations15next_code_point17h99066f8c2695e172E
	.p2align	4, 0x90
_ZN4core3str11validations15next_code_point17h99066f8c2695e172E:
.seh_proc _ZN4core3str11validations15next_code_point17h99066f8c2695e172E
	subq	$120, %rsp
	.seh_stackalloc 120
	.seh_endprologue
	movq	%rcx, 56(%rsp)
	callq	_ZN91_$LT$core..slice..iter..Iter$LT$T$GT$$u20$as$u20$core..iter..traits..iterator..Iterator$GT$4next17ha79d766991ff2561E
	movq	%rax, 80(%rsp)
	movq	80(%rsp), %rdx
	movl	$1, %eax
	xorl	%ecx, %ecx
	cmpq	$0, %rdx
	cmoveq	%rcx, %rax
	cmpq	$0, %rax
	jne	.LBB47_2
	movq	$0, 72(%rsp)
	jmp	.LBB47_3
.LBB47_2:
	movq	80(%rsp), %rax
	movq	%rax, 72(%rsp)
.LBB47_3:
	movq	72(%rsp), %rdx
	xorl	%eax, %eax
	movl	$1, %ecx
	cmpq	$0, %rdx
	cmoveq	%rcx, %rax
	cmpq	$0, %rax
	jne	.LBB47_5
	movq	72(%rsp), %rax
	movb	(%rax), %al
	movb	%al, 55(%rsp)
	cmpb	$-128, %al
	jb	.LBB47_8
	jmp	.LBB47_7
.LBB47_5:
	movl	$0, 64(%rsp)
.LBB47_6:
	movl	64(%rsp), %eax
	movl	68(%rsp), %edx
	addq	$120, %rsp
	retq
.LBB47_7:
	movq	56(%rsp), %rcx
	movb	55(%rsp), %al
	andb	$31, %al
	movzbl	%al, %eax
	movl	%eax, 48(%rsp)
	callq	_ZN91_$LT$core..slice..iter..Iter$LT$T$GT$$u20$as$u20$core..iter..traits..iterator..Iterator$GT$4next17ha79d766991ff2561E
	movq	%rax, 88(%rsp)
	movq	88(%rsp), %rdx
	movl	$1, %eax
	xorl	%ecx, %ecx
	cmpq	$0, %rdx
	cmoveq	%rcx, %rax
	cmpq	$1, %rax
	je	.LBB47_9
	jmp	.LBB47_10
.LBB47_8:
	movb	55(%rsp), %al
	movzbl	%al, %eax
	movl	%eax, 68(%rsp)
	movl	$1, 64(%rsp)
	jmp	.LBB47_6
.LBB47_9:
	movb	55(%rsp), %al
	movl	48(%rsp), %ecx
	movq	88(%rsp), %rdx
	movb	(%rdx), %dl
	movb	%dl, 47(%rsp)
	shll	$6, %ecx
	andb	$63, %dl
	movzbl	%dl, %edx
	orl	%edx, %ecx
	movl	%ecx, 100(%rsp)
	cmpb	$-32, %al
	jae	.LBB47_12
	jmp	.LBB47_11
.LBB47_10:
	ud2
.LBB47_11:
	movl	100(%rsp), %eax
	movl	%eax, 68(%rsp)
	movl	$1, 64(%rsp)
	jmp	.LBB47_6
.LBB47_12:
	movq	56(%rsp), %rcx
	callq	_ZN91_$LT$core..slice..iter..Iter$LT$T$GT$$u20$as$u20$core..iter..traits..iterator..Iterator$GT$4next17ha79d766991ff2561E
	movq	%rax, 104(%rsp)
	movq	104(%rsp), %rdx
	movl	$1, %eax
	xorl	%ecx, %ecx
	cmpq	$0, %rdx
	cmoveq	%rcx, %rax
	cmpq	$1, %rax
	jne	.LBB47_10
	movb	55(%rsp), %al
	movl	48(%rsp), %ecx
	movb	47(%rsp), %dl
	movq	104(%rsp), %r8
	movb	(%r8), %r8b
	andb	$63, %dl
	movzbl	%dl, %edx
	shll	$6, %edx
	andb	$63, %r8b
	movzbl	%r8b, %r8d
	orl	%r8d, %edx
	movl	%edx, 40(%rsp)
	shll	$12, %ecx
	orl	%edx, %ecx
	movl	%ecx, 100(%rsp)
	cmpb	$-16, %al
	jae	.LBB47_15
.LBB47_14:
	jmp	.LBB47_11
.LBB47_15:
	movq	56(%rsp), %rcx
	callq	_ZN91_$LT$core..slice..iter..Iter$LT$T$GT$$u20$as$u20$core..iter..traits..iterator..Iterator$GT$4next17ha79d766991ff2561E
	movq	%rax, 112(%rsp)
	movq	112(%rsp), %rdx
	movl	$1, %eax
	xorl	%ecx, %ecx
	cmpq	$0, %rdx
	cmoveq	%rcx, %rax
	cmpq	$1, %rax
	jne	.LBB47_10
	movl	40(%rsp), %ecx
	movl	48(%rsp), %eax
	movq	112(%rsp), %rdx
	movb	(%rdx), %dl
	andl	$7, %eax
	shll	$18, %eax
	shll	$6, %ecx
	andb	$63, %dl
	movzbl	%dl, %edx
	orl	%edx, %ecx
	orl	%ecx, %eax
	movl	%eax, 100(%rsp)
	jmp	.LBB47_14
	.seh_endproc

	.def	_ZN4core3str21_$LT$impl$u20$str$GT$16is_char_boundary17h46328c4e80c37937E;
	.scl	3;
	.type	32;
	.endef
	.section	.text,"xr",one_only,_ZN4core3str21_$LT$impl$u20$str$GT$16is_char_boundary17h46328c4e80c37937E
	.p2align	4, 0x90
_ZN4core3str21_$LT$impl$u20$str$GT$16is_char_boundary17h46328c4e80c37937E:
.seh_proc _ZN4core3str21_$LT$impl$u20$str$GT$16is_char_boundary17h46328c4e80c37937E
	subq	$40, %rsp
	.seh_stackalloc 40
	.seh_endprologue
	movq	%r8, (%rsp)
	movq	%rdx, 8(%rsp)
	movq	%rcx, 16(%rsp)
	cmpq	$0, %r8
	jne	.LBB48_2
	movb	$1, 31(%rsp)
	jmp	.LBB48_9
.LBB48_2:
	movq	(%rsp), %rax
	movq	8(%rsp), %rcx
	cmpq	%rcx, %rax
	jb	.LBB48_4
	movq	$0, 32(%rsp)
	jmp	.LBB48_5
.LBB48_4:
	movq	(%rsp), %rcx
	movq	16(%rsp), %rax
	addq	%rcx, %rax
	movq	%rax, 32(%rsp)
.LBB48_5:
	movq	32(%rsp), %rdx
	movl	$1, %eax
	xorl	%ecx, %ecx
	cmpq	$0, %rdx
	cmoveq	%rcx, %rax
	cmpq	$0, %rax
	jne	.LBB48_7
	movq	(%rsp), %rax
	movq	8(%rsp), %rcx
	cmpq	%rcx, %rax
	sete	%al
	andb	$1, %al
	movb	%al, 31(%rsp)
	jmp	.LBB48_8
.LBB48_7:
	movq	32(%rsp), %rax
	cmpb	$-64, (%rax)
	setge	%al
	andb	$1, %al
	movb	%al, 31(%rsp)
.LBB48_8:
	jmp	.LBB48_9
.LBB48_9:
	movb	31(%rsp), %al
	andb	$1, %al
	movzbl	%al, %eax
	addq	$40, %rsp
	retq
	.seh_endproc

	.def	_ZN4core3str21_$LT$impl$u20$str$GT$5parse17hc2063a74daa9311aE;
	.scl	3;
	.type	32;
	.endef
	.section	.text,"xr",one_only,_ZN4core3str21_$LT$impl$u20$str$GT$5parse17hc2063a74daa9311aE
	.p2align	4, 0x90
_ZN4core3str21_$LT$impl$u20$str$GT$5parse17hc2063a74daa9311aE:
.seh_proc _ZN4core3str21_$LT$impl$u20$str$GT$5parse17hc2063a74daa9311aE
	subq	$40, %rsp
	.seh_stackalloc 40
	.seh_endprologue
	movq	%rcx, %rax
	movq	%rax, 32(%rsp)
	callq	_ZN4core3num61_$LT$impl$u20$core..str..traits..FromStr$u20$for$u20$u128$GT$8from_str17h809335779f865079E
	movq	32(%rsp), %rax
	addq	$40, %rsp
	retq
	.seh_endproc

	.def	_ZN4core3str21_$LT$impl$u20$str$GT$5parse17hf00feabe03d8a0acE;
	.scl	3;
	.type	32;
	.endef
	.section	.text,"xr",one_only,_ZN4core3str21_$LT$impl$u20$str$GT$5parse17hf00feabe03d8a0acE
	.p2align	4, 0x90
_ZN4core3str21_$LT$impl$u20$str$GT$5parse17hf00feabe03d8a0acE:
.seh_proc _ZN4core3str21_$LT$impl$u20$str$GT$5parse17hf00feabe03d8a0acE
	subq	$56, %rsp
	.seh_stackalloc 56
	.seh_endprologue
	callq	_ZN4core3num60_$LT$impl$u20$core..str..traits..FromStr$u20$for$u20$i32$GT$8from_str17h040af508bcf4d902E
	movq	%rax, 48(%rsp)
	movq	48(%rsp), %rax
	movq	%rax, 40(%rsp)
	movq	40(%rsp), %rax
	addq	$56, %rsp
	retq
	.seh_endproc

	.def	_ZN4core3str21_$LT$impl$u20$str$GT$7matches17h61a035ac1c8a06e1E;
	.scl	3;
	.type	32;
	.endef
	.section	.text,"xr",one_only,_ZN4core3str21_$LT$impl$u20$str$GT$7matches17h61a035ac1c8a06e1E
	.p2align	4, 0x90
_ZN4core3str21_$LT$impl$u20$str$GT$7matches17h61a035ac1c8a06e1E:
.seh_proc _ZN4core3str21_$LT$impl$u20$str$GT$7matches17h61a035ac1c8a06e1E
	subq	$280, %rsp
	.seh_stackalloc 280
	.seh_endprologue
	movq	%r9, 48(%rsp)
	movq	%r8, %rax
	movq	%rdx, %r9
	movq	48(%rsp), %rdx
	movq	%rcx, 56(%rsp)
	movq	%rcx, 64(%rsp)
	movq	320(%rsp), %r8
	leaq	176(%rsp), %rcx
	movq	%rax, 32(%rsp)
	callq	_ZN55_$LT$$RF$str$u20$as$u20$core..str..pattern..Pattern$GT$13into_searcher17h40f6f9aa9db9c00eE
	leaq	72(%rsp), %rcx
	leaq	176(%rsp), %rdx
	movl	$104, %r8d
	callq	memcpy
	movq	56(%rsp), %rcx
	leaq	72(%rsp), %rdx
	movl	$104, %r8d
	callq	memcpy
	movq	64(%rsp), %rax
	addq	$280, %rsp
	retq
	.seh_endproc

	.def	_ZN4core3str4iter24MatchesInternal$LT$P$GT$4next17h7c247c5cdb757d5dE;
	.scl	3;
	.type	32;
	.endef
	.section	.text,"xr",one_only,_ZN4core3str4iter24MatchesInternal$LT$P$GT$4next17h7c247c5cdb757d5dE
	.p2align	4, 0x90
_ZN4core3str4iter24MatchesInternal$LT$P$GT$4next17h7c247c5cdb757d5dE:
.seh_proc _ZN4core3str4iter24MatchesInternal$LT$P$GT$4next17h7c247c5cdb757d5dE
	subq	$104, %rsp
	.seh_stackalloc 104
	.seh_endprologue
	movq	%rcx, %rdx
	movq	%rdx, 32(%rsp)
	leaq	56(%rsp), %rcx
	callq	_ZN80_$LT$core..str..pattern..StrSearcher$u20$as$u20$core..str..pattern..Searcher$GT$10next_match17h560879b18e6428b3E
	movq	32(%rsp), %rcx
	movq	%rcx, 80(%rsp)
	cmpq	$0, 56(%rsp)
	jne	.LBB52_2
	movq	$0, 40(%rsp)
	jmp	.LBB52_3
.LBB52_2:
	movq	64(%rsp), %rcx
	movq	72(%rsp), %rax
	movq	%rcx, 88(%rsp)
	movq	%rax, 96(%rsp)
	movq	80(%rsp), %rcx
	movq	88(%rsp), %rdx
	movq	96(%rsp), %r8
	callq	_ZN4core3str4iter24MatchesInternal$LT$P$GT$4next28_$u7b$$u7b$closure$u7d$$u7d$17h913adbbb37301a79E
	movq	%rax, 40(%rsp)
	movq	%rdx, 48(%rsp)
.LBB52_3:
	movq	40(%rsp), %rax
	movq	48(%rsp), %rdx
	addq	$104, %rsp
	retq
	.seh_endproc

	.def	_ZN4core3str4iter24MatchesInternal$LT$P$GT$4next28_$u7b$$u7b$closure$u7d$$u7d$17h913adbbb37301a79E;
	.scl	3;
	.type	32;
	.endef
	.section	.text,"xr",one_only,_ZN4core3str4iter24MatchesInternal$LT$P$GT$4next28_$u7b$$u7b$closure$u7d$$u7d$17h913adbbb37301a79E
	.p2align	4, 0x90
_ZN4core3str4iter24MatchesInternal$LT$P$GT$4next28_$u7b$$u7b$closure$u7d$$u7d$17h913adbbb37301a79E:
.seh_proc _ZN4core3str4iter24MatchesInternal$LT$P$GT$4next28_$u7b$$u7b$closure$u7d$$u7d$17h913adbbb37301a79E
	subq	$104, %rsp
	.seh_stackalloc 104
	.seh_endprologue
	movq	%r8, 32(%rsp)
	movq	%rdx, 40(%rsp)
	movq	%rcx, 48(%rsp)
	movq	48(%rsp), %rcx
	callq	_ZN80_$LT$core..str..pattern..StrSearcher$u20$as$u20$core..str..pattern..Searcher$GT$8haystack17h3ebeb190a1fef65eE
	movq	32(%rsp), %r8
	movq	%rax, %rcx
	movq	40(%rsp), %rdx
	movq	%rdx, 56(%rsp)
	movq	%r8, 64(%rsp)
	movq	56(%rsp), %rdx
	movq	64(%rsp), %rax
	addq	%rdx, %rcx
	subq	%rdx, %rax
	movq	%rcx, 88(%rsp)
	movq	%rax, 96(%rsp)
	movq	88(%rsp), %rcx
	movq	96(%rsp), %rax
	movq	%rcx, 72(%rsp)
	movq	%rax, 80(%rsp)
	movq	72(%rsp), %rax
	movq	80(%rsp), %rdx
	addq	$104, %rsp
	retq
	.seh_endproc

	.def	_ZN4core3str6traits112_$LT$impl$u20$core..slice..index..SliceIndex$LT$str$GT$$u20$for$u20$core..ops..range..RangeFrom$LT$usize$GT$$GT$3get17h9f1f2231f578c455E;
	.scl	3;
	.type	32;
	.endef
	.section	.text,"xr",one_only,_ZN4core3str6traits112_$LT$impl$u20$core..slice..index..SliceIndex$LT$str$GT$$u20$for$u20$core..ops..range..RangeFrom$LT$usize$GT$$GT$3get17h9f1f2231f578c455E
	.p2align	4, 0x90
_ZN4core3str6traits112_$LT$impl$u20$core..slice..index..SliceIndex$LT$str$GT$$u20$for$u20$core..ops..range..RangeFrom$LT$usize$GT$$GT$3get17h9f1f2231f578c455E:
.seh_proc _ZN4core3str6traits112_$LT$impl$u20$core..slice..index..SliceIndex$LT$str$GT$$u20$for$u20$core..ops..range..RangeFrom$LT$usize$GT$$GT$3get17h9f1f2231f578c455E
	subq	$136, %rsp
	.seh_stackalloc 136
	.seh_endprologue
	movq	%r8, 32(%rsp)
	movq	%rdx, %rax
	movq	32(%rsp), %rdx
	movq	%rax, 40(%rsp)
	movq	%rcx, %r8
	movq	40(%rsp), %rcx
	movq	%r8, 48(%rsp)
	callq	_ZN4core3str21_$LT$impl$u20$str$GT$16is_char_boundary17h46328c4e80c37937E
	testb	$1, %al
	jne	.LBB54_2
	movq	$0, 56(%rsp)
	jmp	.LBB54_3
.LBB54_2:
	movq	40(%rsp), %rcx
	movq	48(%rsp), %rdx
	movq	32(%rsp), %rax
	movq	%rcx, 88(%rsp)
	movq	%rax, 96(%rsp)
	movq	96(%rsp), %rax
	movq	%rdx, 72(%rsp)
	movq	%rax, 80(%rsp)
	addq	72(%rsp), %rcx
	movq	80(%rsp), %rax
	subq	72(%rsp), %rax
	movq	%rcx, 120(%rsp)
	movq	%rax, 128(%rsp)
	movq	120(%rsp), %rcx
	movq	128(%rsp), %rax
	movq	%rcx, 104(%rsp)
	movq	%rax, 112(%rsp)
	movq	104(%rsp), %rcx
	movq	112(%rsp), %rax
	movq	%rcx, 56(%rsp)
	movq	%rax, 64(%rsp)
.LBB54_3:
	movq	56(%rsp), %rax
	movq	64(%rsp), %rdx
	addq	$136, %rsp
	retq
	.seh_endproc

	.def	_ZN4core3str6traits112_$LT$impl$u20$core..slice..index..SliceIndex$LT$str$GT$$u20$for$u20$core..ops..range..RangeFrom$LT$usize$GT$$GT$5index17h90f3dea97ae3cf30E;
	.scl	3;
	.type	32;
	.endef
	.section	.text,"xr",one_only,_ZN4core3str6traits112_$LT$impl$u20$core..slice..index..SliceIndex$LT$str$GT$$u20$for$u20$core..ops..range..RangeFrom$LT$usize$GT$$GT$5index17h90f3dea97ae3cf30E
	.p2align	4, 0x90
_ZN4core3str6traits112_$LT$impl$u20$core..slice..index..SliceIndex$LT$str$GT$$u20$for$u20$core..ops..range..RangeFrom$LT$usize$GT$$GT$5index17h90f3dea97ae3cf30E:
.seh_proc _ZN4core3str6traits112_$LT$impl$u20$core..slice..index..SliceIndex$LT$str$GT$$u20$for$u20$core..ops..range..RangeFrom$LT$usize$GT$$GT$5index17h90f3dea97ae3cf30E
	subq	$120, %rsp
	.seh_stackalloc 120
	.seh_endprologue
	movq	%r9, 48(%rsp)
	movq	%r8, 56(%rsp)
	movq	%rdx, 64(%rsp)
	movq	%rcx, 88(%rsp)
	movq	%r8, 96(%rsp)
	movq	88(%rsp), %rax
	movq	%rax, 72(%rsp)
	movq	96(%rsp), %rax
	movq	%rax, 80(%rsp)
	callq	_ZN4core3str6traits112_$LT$impl$u20$core..slice..index..SliceIndex$LT$str$GT$$u20$for$u20$core..ops..range..RangeFrom$LT$usize$GT$$GT$3get17h9f1f2231f578c455E
	movq	%rdx, 112(%rsp)
	movq	%rax, 104(%rsp)
	movq	104(%rsp), %rdx
	movl	$1, %eax
	xorl	%ecx, %ecx
	cmpq	$0, %rdx
	cmoveq	%rcx, %rax
	cmpq	$0, %rax
	jne	.LBB55_2
	movq	80(%rsp), %r9
	movq	72(%rsp), %r8
	movq	56(%rsp), %rdx
	movq	64(%rsp), %rcx
	movq	48(%rsp), %r10
	movq	%rsp, %rax
	movq	%r10, 32(%rax)
	callq	_ZN4core3str16slice_error_fail17h15c925c97a69fe1eE
	ud2
.LBB55_2:
	movq	104(%rsp), %rax
	movq	112(%rsp), %rdx
	addq	$120, %rsp
	retq
	.seh_endproc

	.def	_ZN4core3str7pattern14TwoWaySearcher4next17hb042af6049726ab1E;
	.scl	3;
	.type	32;
	.endef
	.section	.text,"xr",one_only,_ZN4core3str7pattern14TwoWaySearcher4next17hb042af6049726ab1E
	.p2align	4, 0x90
_ZN4core3str7pattern14TwoWaySearcher4next17hb042af6049726ab1E:
.seh_proc _ZN4core3str7pattern14TwoWaySearcher4next17hb042af6049726ab1E
	subq	$328, %rsp
	.seh_stackalloc 328
	.seh_endprologue
	movq	%r9, 104(%rsp)
	movq	%r8, 112(%rsp)
	movq	%rdx, 120(%rsp)
	movq	%rcx, 128(%rsp)
	movq	%rcx, 136(%rsp)
	movb	384(%rsp), %al
	movb	%al, 151(%rsp)
	movq	376(%rsp), %rax
	movq	%rax, 152(%rsp)
	movq	368(%rsp), %rcx
	movq	%rcx, 160(%rsp)
	movq	32(%rdx), %rcx
	movq	%rcx, 168(%rsp)
	subq	$1, %rax
	movq	%rax, 176(%rsp)
.LBB56_1:
	movq	104(%rsp), %rcx
	movq	120(%rsp), %rdx
	movq	176(%rsp), %rax
	addq	32(%rdx), %rax
	movq	%rax, 96(%rsp)
	cmpq	%rcx, %rax
	jb	.LBB56_3
	movq	$0, 184(%rsp)
	jmp	.LBB56_4
.LBB56_3:
	movq	96(%rsp), %rcx
	movq	112(%rsp), %rax
	addq	%rcx, %rax
	movq	%rax, 184(%rsp)
.LBB56_4:
	movq	184(%rsp), %rdx
	movl	$1, %eax
	xorl	%ecx, %ecx
	cmpq	$0, %rdx
	cmoveq	%rcx, %rax
	cmpq	$0, %rax
	jne	.LBB56_6
	movq	168(%rsp), %rdx
	movq	128(%rsp), %rcx
	movq	120(%rsp), %rax
	movq	104(%rsp), %r8
	movq	%r8, 32(%rax)
	movq	32(%rax), %r8
	callq	_ZN89_$LT$core..str..pattern..RejectAndMatch$u20$as$u20$core..str..pattern..TwoWayStrategy$GT$9rejecting17hce34498cfdedb333E
	jmp	.LBB56_12
.LBB56_6:
	movq	184(%rsp), %rax
	movb	(%rax), %al
	movb	%al, 95(%rsp)
	callq	_ZN89_$LT$core..str..pattern..RejectAndMatch$u20$as$u20$core..str..pattern..TwoWayStrategy$GT$16use_early_reject17hdb35d0417648a095E
	testb	$1, %al
	jne	.LBB56_8
	movb	$0, 199(%rsp)
	jmp	.LBB56_9
.LBB56_8:
	movq	168(%rsp), %rax
	movq	120(%rsp), %rcx
	cmpq	32(%rcx), %rax
	setne	%al
	andb	$1, %al
	movb	%al, 199(%rsp)
.LBB56_9:
	testb	$1, 199(%rsp)
	jne	.LBB56_11
	movb	95(%rsp), %cl
	movq	120(%rsp), %rax
	movq	24(%rax), %rax
	andb	$63, %cl
	movzbl	%cl, %ecx
	andq	$63, %rcx
	shrq	%cl, %rax
	andq	$1, %rax
	cmpq	$0, %rax
	setne	%al
	xorb	$-1, %al
	testb	$1, %al
	jne	.LBB56_14
	jmp	.LBB56_13
.LBB56_11:
	movq	168(%rsp), %rdx
	movq	128(%rsp), %rcx
	movq	120(%rsp), %rax
	movq	32(%rax), %r8
	callq	_ZN89_$LT$core..str..pattern..RejectAndMatch$u20$as$u20$core..str..pattern..TwoWayStrategy$GT$9rejecting17hce34498cfdedb333E
.LBB56_12:
	movq	136(%rsp), %rax
	addq	$328, %rsp
	retq
.LBB56_13:
	movb	151(%rsp), %al
	testb	$1, %al
	jne	.LBB56_18
	jmp	.LBB56_17
.LBB56_14:
	movb	151(%rsp), %al
	movq	120(%rsp), %rcx
	movq	152(%rsp), %rdx
	addq	32(%rcx), %rdx
	movq	%rdx, 32(%rcx)
	xorb	$-1, %al
	testb	$1, %al
	jne	.LBB56_16
.LBB56_15:
	jmp	.LBB56_1
.LBB56_16:
	movq	120(%rsp), %rax
	movq	$0, 48(%rax)
	jmp	.LBB56_15
.LBB56_17:
	movq	120(%rsp), %rax
	movq	(%rax), %rcx
	movq	48(%rax), %rdx
	callq	_ZN4core3cmp6max_by17h118efc92c3261ec2E
	movq	%rax, 200(%rsp)
	jmp	.LBB56_19
.LBB56_18:
	movq	120(%rsp), %rax
	movq	(%rax), %rax
	movq	%rax, 200(%rsp)
.LBB56_19:
	movq	152(%rsp), %rax
	movq	200(%rsp), %rcx
	movq	%rcx, 208(%rsp)
	movq	%rax, 216(%rsp)
	movq	208(%rsp), %rcx
	movq	216(%rsp), %rax
	movq	%rcx, 224(%rsp)
	movq	%rax, 232(%rsp)
.LBB56_20:
	leaq	224(%rsp), %rcx
	callq	_ZN89_$LT$core..ops..range..Range$LT$T$GT$$u20$as$u20$core..iter..range..RangeIteratorImpl$GT$9spec_next17h77c9888a9547ed2cE
	movq	%rdx, 248(%rsp)
	movq	%rax, 240(%rsp)
	cmpq	$0, 240(%rsp)
	jne	.LBB56_22
	movb	151(%rsp), %al
	testb	$1, %al
	jne	.LBB56_33
	jmp	.LBB56_32
.LBB56_22:
	movq	152(%rsp), %rcx
	movq	248(%rsp), %rax
	movq	%rax, 80(%rsp)
	cmpq	%rcx, %rax
	setb	%al
	testb	$1, %al
	jne	.LBB56_23
	jmp	.LBB56_24
.LBB56_23:
	movq	104(%rsp), %rcx
	movq	120(%rsp), %rdx
	movq	80(%rsp), %rax
	movq	160(%rsp), %r8
	movb	(%r8,%rax), %r8b
	movb	%r8b, 71(%rsp)
	addq	32(%rdx), %rax
	movq	%rax, 72(%rsp)
	cmpq	%rcx, %rax
	setb	%al
	testb	$1, %al
	jne	.LBB56_25
	jmp	.LBB56_26
.LBB56_24:
	movq	152(%rsp), %rdx
	movq	80(%rsp), %rcx
	leaq	__unnamed_8(%rip), %r8
	callq	_ZN4core9panicking18panic_bounds_check17h08e99065497f24e2E
	ud2
.LBB56_25:
	movb	71(%rsp), %al
	movq	112(%rsp), %rcx
	movq	72(%rsp), %rdx
	cmpb	(%rcx,%rdx), %al
	jne	.LBB56_28
	jmp	.LBB56_27
.LBB56_26:
	movq	104(%rsp), %rdx
	movq	72(%rsp), %rcx
	leaq	__unnamed_9(%rip), %r8
	callq	_ZN4core9panicking18panic_bounds_check17h08e99065497f24e2E
	ud2
.LBB56_27:
	jmp	.LBB56_20
.LBB56_28:
	movb	151(%rsp), %al
	movq	120(%rsp), %rcx
	movq	80(%rsp), %rdx
	subq	(%rcx), %rdx
	addq	$1, %rdx
	addq	32(%rcx), %rdx
	movq	%rdx, 32(%rcx)
	xorb	$-1, %al
	testb	$1, %al
	jne	.LBB56_30
.LBB56_29:
	jmp	.LBB56_31
.LBB56_30:
	movq	120(%rsp), %rax
	movq	$0, 48(%rax)
	jmp	.LBB56_29
.LBB56_31:
	jmp	.LBB56_1
.LBB56_32:
	movq	120(%rsp), %rax
	movq	48(%rax), %rax
	movq	%rax, 256(%rsp)
	jmp	.LBB56_34
.LBB56_33:
	movq	$0, 256(%rsp)
.LBB56_34:
	movq	120(%rsp), %rax
	movq	256(%rsp), %rcx
	movq	(%rax), %rax
	movq	%rcx, 280(%rsp)
	movq	%rax, 288(%rsp)
	movq	280(%rsp), %rcx
	movq	288(%rsp), %rax
	movq	%rcx, 264(%rsp)
	movq	%rax, 272(%rsp)
	movq	264(%rsp), %rcx
	movq	272(%rsp), %rax
	movq	%rcx, 296(%rsp)
	movq	%rax, 304(%rsp)
.LBB56_35:
	leaq	296(%rsp), %rcx
	callq	_ZN89_$LT$core..ops..range..Range$LT$T$GT$$u20$as$u20$core..iter..range..RangeIteratorImpl$GT$14spec_next_back17hc0f1f50c0a519073E
	movq	%rdx, 320(%rsp)
	movq	%rax, 312(%rsp)
	cmpq	$0, 312(%rsp)
	jne	.LBB56_37
	movb	151(%rsp), %al
	movq	120(%rsp), %rcx
	movq	152(%rsp), %rdx
	movq	32(%rcx), %r8
	movq	%r8, 56(%rsp)
	addq	32(%rcx), %rdx
	movq	%rdx, 32(%rcx)
	xorb	$-1, %al
	testb	$1, %al
	jne	.LBB56_47
	jmp	.LBB56_46
.LBB56_37:
	movq	152(%rsp), %rcx
	movq	320(%rsp), %rax
	movq	%rax, 48(%rsp)
	cmpq	%rcx, %rax
	setb	%al
	testb	$1, %al
	jne	.LBB56_38
	jmp	.LBB56_39
.LBB56_38:
	movq	104(%rsp), %rcx
	movq	120(%rsp), %rdx
	movq	48(%rsp), %rax
	movq	160(%rsp), %r8
	movb	(%r8,%rax), %r8b
	movb	%r8b, 39(%rsp)
	addq	32(%rdx), %rax
	movq	%rax, 40(%rsp)
	cmpq	%rcx, %rax
	setb	%al
	testb	$1, %al
	jne	.LBB56_40
	jmp	.LBB56_41
.LBB56_39:
	movq	152(%rsp), %rdx
	movq	48(%rsp), %rcx
	leaq	__unnamed_10(%rip), %r8
	callq	_ZN4core9panicking18panic_bounds_check17h08e99065497f24e2E
	ud2
.LBB56_40:
	movb	39(%rsp), %al
	movq	112(%rsp), %rcx
	movq	40(%rsp), %rdx
	cmpb	(%rcx,%rdx), %al
	jne	.LBB56_43
	jmp	.LBB56_42
.LBB56_41:
	movq	104(%rsp), %rdx
	movq	40(%rsp), %rcx
	leaq	__unnamed_11(%rip), %r8
	callq	_ZN4core9panicking18panic_bounds_check17h08e99065497f24e2E
	ud2
.LBB56_42:
	jmp	.LBB56_35
.LBB56_43:
	movb	151(%rsp), %al
	movq	120(%rsp), %rcx
	movq	16(%rcx), %rdx
	addq	32(%rcx), %rdx
	movq	%rdx, 32(%rcx)
	xorb	$-1, %al
	testb	$1, %al
	jne	.LBB56_45
.LBB56_44:
	jmp	.LBB56_31
.LBB56_45:
	movq	120(%rsp), %rax
	movq	152(%rsp), %rcx
	subq	16(%rax), %rcx
	movq	%rcx, 48(%rax)
	jmp	.LBB56_44
.LBB56_46:
	movq	56(%rsp), %rdx
	movq	128(%rsp), %rcx
	movq	152(%rsp), %rax
	movq	%rdx, %r8
	addq	%rax, %r8
	callq	_ZN89_$LT$core..str..pattern..RejectAndMatch$u20$as$u20$core..str..pattern..TwoWayStrategy$GT$8matching17h2c149d784e013259E
	jmp	.LBB56_12
.LBB56_47:
	movq	120(%rsp), %rax
	movq	$0, 48(%rax)
	jmp	.LBB56_46
	.seh_endproc

	.def	_ZN4core3str7pattern14TwoWaySearcher4next17hc0aa6b46eb03fbecE;
	.scl	3;
	.type	32;
	.endef
	.section	.text,"xr",one_only,_ZN4core3str7pattern14TwoWaySearcher4next17hc0aa6b46eb03fbecE
	.p2align	4, 0x90
_ZN4core3str7pattern14TwoWaySearcher4next17hc0aa6b46eb03fbecE:
.seh_proc _ZN4core3str7pattern14TwoWaySearcher4next17hc0aa6b46eb03fbecE
	subq	$328, %rsp
	.seh_stackalloc 328
	.seh_endprologue
	movq	%r9, 104(%rsp)
	movq	%r8, 112(%rsp)
	movq	%rdx, 120(%rsp)
	movq	%rcx, 128(%rsp)
	movq	%rcx, 136(%rsp)
	movb	384(%rsp), %al
	movb	%al, 151(%rsp)
	movq	376(%rsp), %rax
	movq	%rax, 152(%rsp)
	movq	368(%rsp), %rcx
	movq	%rcx, 160(%rsp)
	movq	32(%rdx), %rcx
	movq	%rcx, 168(%rsp)
	subq	$1, %rax
	movq	%rax, 176(%rsp)
.LBB57_1:
	movq	104(%rsp), %rcx
	movq	120(%rsp), %rdx
	movq	176(%rsp), %rax
	addq	32(%rdx), %rax
	movq	%rax, 96(%rsp)
	cmpq	%rcx, %rax
	jb	.LBB57_3
	movq	$0, 184(%rsp)
	jmp	.LBB57_4
.LBB57_3:
	movq	96(%rsp), %rcx
	movq	112(%rsp), %rax
	addq	%rcx, %rax
	movq	%rax, 184(%rsp)
.LBB57_4:
	movq	184(%rsp), %rdx
	movl	$1, %eax
	xorl	%ecx, %ecx
	cmpq	$0, %rdx
	cmoveq	%rcx, %rax
	cmpq	$0, %rax
	jne	.LBB57_6
	movq	168(%rsp), %rdx
	movq	128(%rsp), %rcx
	movq	120(%rsp), %rax
	movq	104(%rsp), %r8
	movq	%r8, 32(%rax)
	movq	32(%rax), %r8
	callq	_ZN84_$LT$core..str..pattern..MatchOnly$u20$as$u20$core..str..pattern..TwoWayStrategy$GT$9rejecting17hf5a7dba7666c8a29E
	jmp	.LBB57_12
.LBB57_6:
	movq	184(%rsp), %rax
	movb	(%rax), %al
	movb	%al, 95(%rsp)
	callq	_ZN84_$LT$core..str..pattern..MatchOnly$u20$as$u20$core..str..pattern..TwoWayStrategy$GT$16use_early_reject17h17bf4d86fd1b7371E
	testb	$1, %al
	jne	.LBB57_8
	movb	$0, 199(%rsp)
	jmp	.LBB57_9
.LBB57_8:
	movq	168(%rsp), %rax
	movq	120(%rsp), %rcx
	cmpq	32(%rcx), %rax
	setne	%al
	andb	$1, %al
	movb	%al, 199(%rsp)
.LBB57_9:
	testb	$1, 199(%rsp)
	jne	.LBB57_11
	movb	95(%rsp), %cl
	movq	120(%rsp), %rax
	movq	24(%rax), %rax
	andb	$63, %cl
	movzbl	%cl, %ecx
	andq	$63, %rcx
	shrq	%cl, %rax
	andq	$1, %rax
	cmpq	$0, %rax
	setne	%al
	xorb	$-1, %al
	testb	$1, %al
	jne	.LBB57_14
	jmp	.LBB57_13
.LBB57_11:
	movq	168(%rsp), %rdx
	movq	128(%rsp), %rcx
	movq	120(%rsp), %rax
	movq	32(%rax), %r8
	callq	_ZN84_$LT$core..str..pattern..MatchOnly$u20$as$u20$core..str..pattern..TwoWayStrategy$GT$9rejecting17hf5a7dba7666c8a29E
.LBB57_12:
	movq	136(%rsp), %rax
	addq	$328, %rsp
	retq
.LBB57_13:
	movb	151(%rsp), %al
	testb	$1, %al
	jne	.LBB57_18
	jmp	.LBB57_17
.LBB57_14:
	movb	151(%rsp), %al
	movq	120(%rsp), %rcx
	movq	152(%rsp), %rdx
	addq	32(%rcx), %rdx
	movq	%rdx, 32(%rcx)
	xorb	$-1, %al
	testb	$1, %al
	jne	.LBB57_16
.LBB57_15:
	jmp	.LBB57_1
.LBB57_16:
	movq	120(%rsp), %rax
	movq	$0, 48(%rax)
	jmp	.LBB57_15
.LBB57_17:
	movq	120(%rsp), %rax
	movq	(%rax), %rcx
	movq	48(%rax), %rdx
	callq	_ZN4core3cmp6max_by17h118efc92c3261ec2E
	movq	%rax, 200(%rsp)
	jmp	.LBB57_19
.LBB57_18:
	movq	120(%rsp), %rax
	movq	(%rax), %rax
	movq	%rax, 200(%rsp)
.LBB57_19:
	movq	152(%rsp), %rax
	movq	200(%rsp), %rcx
	movq	%rcx, 208(%rsp)
	movq	%rax, 216(%rsp)
	movq	208(%rsp), %rcx
	movq	216(%rsp), %rax
	movq	%rcx, 224(%rsp)
	movq	%rax, 232(%rsp)
.LBB57_20:
	leaq	224(%rsp), %rcx
	callq	_ZN89_$LT$core..ops..range..Range$LT$T$GT$$u20$as$u20$core..iter..range..RangeIteratorImpl$GT$9spec_next17h77c9888a9547ed2cE
	movq	%rdx, 248(%rsp)
	movq	%rax, 240(%rsp)
	cmpq	$0, 240(%rsp)
	jne	.LBB57_22
	movb	151(%rsp), %al
	testb	$1, %al
	jne	.LBB57_33
	jmp	.LBB57_32
.LBB57_22:
	movq	152(%rsp), %rcx
	movq	248(%rsp), %rax
	movq	%rax, 80(%rsp)
	cmpq	%rcx, %rax
	setb	%al
	testb	$1, %al
	jne	.LBB57_23
	jmp	.LBB57_24
.LBB57_23:
	movq	104(%rsp), %rcx
	movq	120(%rsp), %rdx
	movq	80(%rsp), %rax
	movq	160(%rsp), %r8
	movb	(%r8,%rax), %r8b
	movb	%r8b, 71(%rsp)
	addq	32(%rdx), %rax
	movq	%rax, 72(%rsp)
	cmpq	%rcx, %rax
	setb	%al
	testb	$1, %al
	jne	.LBB57_25
	jmp	.LBB57_26
.LBB57_24:
	movq	152(%rsp), %rdx
	movq	80(%rsp), %rcx
	leaq	__unnamed_8(%rip), %r8
	callq	_ZN4core9panicking18panic_bounds_check17h08e99065497f24e2E
	ud2
.LBB57_25:
	movb	71(%rsp), %al
	movq	112(%rsp), %rcx
	movq	72(%rsp), %rdx
	cmpb	(%rcx,%rdx), %al
	jne	.LBB57_28
	jmp	.LBB57_27
.LBB57_26:
	movq	104(%rsp), %rdx
	movq	72(%rsp), %rcx
	leaq	__unnamed_9(%rip), %r8
	callq	_ZN4core9panicking18panic_bounds_check17h08e99065497f24e2E
	ud2
.LBB57_27:
	jmp	.LBB57_20
.LBB57_28:
	movb	151(%rsp), %al
	movq	120(%rsp), %rcx
	movq	80(%rsp), %rdx
	subq	(%rcx), %rdx
	addq	$1, %rdx
	addq	32(%rcx), %rdx
	movq	%rdx, 32(%rcx)
	xorb	$-1, %al
	testb	$1, %al
	jne	.LBB57_30
.LBB57_29:
	jmp	.LBB57_31
.LBB57_30:
	movq	120(%rsp), %rax
	movq	$0, 48(%rax)
	jmp	.LBB57_29
.LBB57_31:
	jmp	.LBB57_1
.LBB57_32:
	movq	120(%rsp), %rax
	movq	48(%rax), %rax
	movq	%rax, 256(%rsp)
	jmp	.LBB57_34
.LBB57_33:
	movq	$0, 256(%rsp)
.LBB57_34:
	movq	120(%rsp), %rax
	movq	256(%rsp), %rcx
	movq	(%rax), %rax
	movq	%rcx, 280(%rsp)
	movq	%rax, 288(%rsp)
	movq	280(%rsp), %rcx
	movq	288(%rsp), %rax
	movq	%rcx, 264(%rsp)
	movq	%rax, 272(%rsp)
	movq	264(%rsp), %rcx
	movq	272(%rsp), %rax
	movq	%rcx, 296(%rsp)
	movq	%rax, 304(%rsp)
.LBB57_35:
	leaq	296(%rsp), %rcx
	callq	_ZN89_$LT$core..ops..range..Range$LT$T$GT$$u20$as$u20$core..iter..range..RangeIteratorImpl$GT$14spec_next_back17hc0f1f50c0a519073E
	movq	%rdx, 320(%rsp)
	movq	%rax, 312(%rsp)
	cmpq	$0, 312(%rsp)
	jne	.LBB57_37
	movb	151(%rsp), %al
	movq	120(%rsp), %rcx
	movq	152(%rsp), %rdx
	movq	32(%rcx), %r8
	movq	%r8, 56(%rsp)
	addq	32(%rcx), %rdx
	movq	%rdx, 32(%rcx)
	xorb	$-1, %al
	testb	$1, %al
	jne	.LBB57_47
	jmp	.LBB57_46
.LBB57_37:
	movq	152(%rsp), %rcx
	movq	320(%rsp), %rax
	movq	%rax, 48(%rsp)
	cmpq	%rcx, %rax
	setb	%al
	testb	$1, %al
	jne	.LBB57_38
	jmp	.LBB57_39
.LBB57_38:
	movq	104(%rsp), %rcx
	movq	120(%rsp), %rdx
	movq	48(%rsp), %rax
	movq	160(%rsp), %r8
	movb	(%r8,%rax), %r8b
	movb	%r8b, 39(%rsp)
	addq	32(%rdx), %rax
	movq	%rax, 40(%rsp)
	cmpq	%rcx, %rax
	setb	%al
	testb	$1, %al
	jne	.LBB57_40
	jmp	.LBB57_41
.LBB57_39:
	movq	152(%rsp), %rdx
	movq	48(%rsp), %rcx
	leaq	__unnamed_10(%rip), %r8
	callq	_ZN4core9panicking18panic_bounds_check17h08e99065497f24e2E
	ud2
.LBB57_40:
	movb	39(%rsp), %al
	movq	112(%rsp), %rcx
	movq	40(%rsp), %rdx
	cmpb	(%rcx,%rdx), %al
	jne	.LBB57_43
	jmp	.LBB57_42
.LBB57_41:
	movq	104(%rsp), %rdx
	movq	40(%rsp), %rcx
	leaq	__unnamed_11(%rip), %r8
	callq	_ZN4core9panicking18panic_bounds_check17h08e99065497f24e2E
	ud2
.LBB57_42:
	jmp	.LBB57_35
.LBB57_43:
	movb	151(%rsp), %al
	movq	120(%rsp), %rcx
	movq	16(%rcx), %rdx
	addq	32(%rcx), %rdx
	movq	%rdx, 32(%rcx)
	xorb	$-1, %al
	testb	$1, %al
	jne	.LBB57_45
.LBB57_44:
	jmp	.LBB57_31
.LBB57_45:
	movq	120(%rsp), %rax
	movq	152(%rsp), %rcx
	subq	16(%rax), %rcx
	movq	%rcx, 48(%rax)
	jmp	.LBB57_44
.LBB57_46:
	movq	56(%rsp), %rdx
	movq	128(%rsp), %rcx
	movq	152(%rsp), %rax
	movq	%rdx, %r8
	addq	%rax, %r8
	callq	_ZN84_$LT$core..str..pattern..MatchOnly$u20$as$u20$core..str..pattern..TwoWayStrategy$GT$8matching17h0f55d3a92c46beabE
	jmp	.LBB57_12
.LBB57_47:
	movq	120(%rsp), %rax
	movq	$0, 48(%rax)
	jmp	.LBB57_46
	.seh_endproc

	.def	_ZN4core4iter5range101_$LT$impl$u20$core..iter..traits..iterator..Iterator$u20$for$u20$core..ops..range..Range$LT$A$GT$$GT$4next17h0ca39cfbdcbd2a3eE;
	.scl	3;
	.type	32;
	.endef
	.section	.text,"xr",one_only,_ZN4core4iter5range101_$LT$impl$u20$core..iter..traits..iterator..Iterator$u20$for$u20$core..ops..range..Range$LT$A$GT$$GT$4next17h0ca39cfbdcbd2a3eE
	.p2align	4, 0x90
_ZN4core4iter5range101_$LT$impl$u20$core..iter..traits..iterator..Iterator$u20$for$u20$core..ops..range..Range$LT$A$GT$$GT$4next17h0ca39cfbdcbd2a3eE:
.seh_proc _ZN4core4iter5range101_$LT$impl$u20$core..iter..traits..iterator..Iterator$u20$for$u20$core..ops..range..Range$LT$A$GT$$GT$4next17h0ca39cfbdcbd2a3eE
	subq	$40, %rsp
	.seh_stackalloc 40
	.seh_endprologue
	callq	_ZN89_$LT$core..ops..range..Range$LT$T$GT$$u20$as$u20$core..iter..range..RangeIteratorImpl$GT$9spec_next17h9f2a91ad2365ce4aE
	nop
	addq	$40, %rsp
	retq
	.seh_endproc

	.def	_ZN4core4iter5range101_$LT$impl$u20$core..iter..traits..iterator..Iterator$u20$for$u20$core..ops..range..Range$LT$A$GT$$GT$4next17haf1eda1f008c8deeE;
	.scl	3;
	.type	32;
	.endef
	.section	.text,"xr",one_only,_ZN4core4iter5range101_$LT$impl$u20$core..iter..traits..iterator..Iterator$u20$for$u20$core..ops..range..Range$LT$A$GT$$GT$4next17haf1eda1f008c8deeE
	.p2align	4, 0x90
_ZN4core4iter5range101_$LT$impl$u20$core..iter..traits..iterator..Iterator$u20$for$u20$core..ops..range..Range$LT$A$GT$$GT$4next17haf1eda1f008c8deeE:
.seh_proc _ZN4core4iter5range101_$LT$impl$u20$core..iter..traits..iterator..Iterator$u20$for$u20$core..ops..range..Range$LT$A$GT$$GT$4next17haf1eda1f008c8deeE
	subq	$40, %rsp
	.seh_stackalloc 40
	.seh_endprologue
	callq	_ZN89_$LT$core..ops..range..Range$LT$T$GT$$u20$as$u20$core..iter..range..RangeIteratorImpl$GT$9spec_next17hcd2fd9aa9c7ac92bE
	nop
	addq	$40, %rsp
	retq
	.seh_endproc

	.def	_ZN4core4iter6traits10exact_size17ExactSizeIterator3len17hfae936d9d655b7bdE;
	.scl	3;
	.type	32;
	.endef
	.section	.text,"xr",one_only,_ZN4core4iter6traits10exact_size17ExactSizeIterator3len17hfae936d9d655b7bdE
	.p2align	4, 0x90
_ZN4core4iter6traits10exact_size17ExactSizeIterator3len17hfae936d9d655b7bdE:
.seh_proc _ZN4core4iter6traits10exact_size17ExactSizeIterator3len17hfae936d9d655b7bdE
	subq	$184, %rsp
	.seh_stackalloc 184
	.seh_endprologue
	movq	%rcx, %rdx
	leaq	80(%rsp), %rcx
	callq	_ZN103_$LT$alloc..vec..into_iter..IntoIter$LT$T$C$A$GT$$u20$as$u20$core..iter..traits..iterator..Iterator$GT$9size_hint17h64696f30e73a9abaE
	movq	80(%rsp), %rax
	movq	%rax, 40(%rsp)
	movq	88(%rsp), %rdx
	movq	96(%rsp), %rcx
	movq	%rdx, 64(%rsp)
	movq	%rcx, 72(%rsp)
	movq	%rax, 128(%rsp)
	movq	$1, 120(%rsp)
	leaq	64(%rsp), %rax
	movq	%rax, 104(%rsp)
	leaq	120(%rsp), %rax
	movq	%rax, 112(%rsp)
	movq	104(%rsp), %rcx
	movq	%rcx, 48(%rsp)
	movq	112(%rsp), %rdx
	movq	%rdx, 56(%rsp)
	callq	_ZN55_$LT$T$u20$as$u20$core..option..SpecOptionPartialEq$GT$2eq17hf38d6f5a31ffd21cE
	xorb	$-1, %al
	testb	$1, %al
	jne	.LBB60_2
	movq	40(%rsp), %rax
	addq	$184, %rsp
	retq
.LBB60_2:
	movq	56(%rsp), %r8
	movq	48(%rsp), %rdx
	movq	$0, 136(%rsp)
	leaq	__unnamed_12(%rip), %rcx
	movq	%rsp, %rax
	movq	%rcx, 32(%rax)
	xorl	%eax, %eax
	movb	%al, %cl
	leaq	136(%rsp), %r9
	callq	_ZN4core9panicking13assert_failed17hc475eab5f9230259E
	ud2
	.seh_endproc

	.def	_ZN4core4iter6traits8iterator8Iterator4fold17hc5cac5e6def12854E;
	.scl	3;
	.type	32;
	.endef
	.section	.text,"xr",one_only,_ZN4core4iter6traits8iterator8Iterator4fold17hc5cac5e6def12854E
	.p2align	4, 0x90
_ZN4core4iter6traits8iterator8Iterator4fold17hc5cac5e6def12854E:
.Lfunc_begin8:
.seh_proc _ZN4core4iter6traits8iterator8Iterator4fold17hc5cac5e6def12854E
	.seh_handler __CxxFrameHandler3, @unwind, @except
	pushq	%rbp
	.seh_pushreg %rbp
	subq	$144, %rsp
	.seh_stackalloc 144
	leaq	128(%rsp), %rbp
	.seh_setframe %rbp, 128
	.seh_endprologue
	movq	$-2, 8(%rbp)
	movq	%rcx, -64(%rbp)
	movb	$1, 7(%rbp)
	movq	%rdx, -48(%rbp)
.LBB61_1:
.Ltmp24:
	movq	-64(%rbp), %rcx
	callq	_ZN92_$LT$core..str..iter..Matches$LT$P$GT$$u20$as$u20$core..iter..traits..iterator..Iterator$GT$4next17hf3fb647684670c50E
.Ltmp25:
	movq	%rdx, -80(%rbp)
	movq	%rax, -72(%rbp)
	jmp	.LBB61_3
.LBB61_3:
	movq	-80(%rbp), %rax
	movq	-72(%rbp), %rcx
	movq	%rcx, -40(%rbp)
	movq	%rax, -32(%rbp)
	movq	-40(%rbp), %rdx
	movl	$1, %eax
	xorl	%ecx, %ecx
	cmpq	$0, %rdx
	cmoveq	%rcx, %rax
	cmpq	$1, %rax
	jne	.LBB61_5
	movq	-40(%rbp), %rcx
	movq	-32(%rbp), %rax
	movb	$0, 7(%rbp)
	movq	-48(%rbp), %rdx
	movq	%rdx, -24(%rbp)
	movq	%rcx, -16(%rbp)
	movq	%rax, -8(%rbp)
	movq	-24(%rbp), %rdx
	movq	-16(%rbp), %r8
	movq	-8(%rbp), %r9
.Ltmp26:
	leaq	-56(%rbp), %rcx
	callq	_ZN4core4iter6traits8iterator8Iterator5count28_$u7b$$u7b$closure$u7d$$u7d$17h62c195ffa8c0394eE
.Ltmp27:
	movq	%rax, -88(%rbp)
	jmp	.LBB61_6
.LBB61_5:
	movq	-48(%rbp), %rax
	addq	$144, %rsp
	popq	%rbp
	retq
.LBB61_6:
	movq	-88(%rbp), %rax
	movb	$1, 7(%rbp)
	movq	%rax, -48(%rbp)
	jmp	.LBB61_1
	.seh_handlerdata
	.long	($cppxdata$_ZN4core4iter6traits8iterator8Iterator4fold17hc5cac5e6def12854E)@IMGREL
	.section	.text,"xr",one_only,_ZN4core4iter6traits8iterator8Iterator4fold17hc5cac5e6def12854E
	.seh_endproc
	.def	"?dtor$2@?0?_ZN4core4iter6traits8iterator8Iterator4fold17hc5cac5e6def12854E@4HA";
	.scl	3;
	.type	32;
	.endef
	.p2align	4, 0x90
"?dtor$2@?0?_ZN4core4iter6traits8iterator8Iterator4fold17hc5cac5e6def12854E@4HA":
.seh_proc "?dtor$2@?0?_ZN4core4iter6traits8iterator8Iterator4fold17hc5cac5e6def12854E@4HA"
.LBB61_2:
	movq	%rdx, 16(%rsp)
	pushq	%rbp
	.seh_pushreg %rbp
	subq	$32, %rsp
	.seh_stackalloc 32
	leaq	128(%rdx), %rbp
	.seh_endprologue
	testb	$1, 7(%rbp)
	jne	.LBB61_8
	jmp	.LBB61_7
.LBB61_7:
	addq	$32, %rsp
	popq	%rbp
	retq
.LBB61_8:
	jmp	.LBB61_7
	.seh_handlerdata
	.section	.text,"xr",one_only,_ZN4core4iter6traits8iterator8Iterator4fold17hc5cac5e6def12854E
	.seh_endproc
	.def	"?dtor$9@?0?_ZN4core4iter6traits8iterator8Iterator4fold17hc5cac5e6def12854E@4HA";
	.scl	3;
	.type	32;
	.endef
	.p2align	4, 0x90
"?dtor$9@?0?_ZN4core4iter6traits8iterator8Iterator4fold17hc5cac5e6def12854E@4HA":
.seh_proc "?dtor$9@?0?_ZN4core4iter6traits8iterator8Iterator4fold17hc5cac5e6def12854E@4HA"
.LBB61_9:
	movq	%rdx, 16(%rsp)
	pushq	%rbp
	.seh_pushreg %rbp
	subq	$32, %rsp
	.seh_stackalloc 32
	leaq	128(%rdx), %rbp
	.seh_endprologue
	addq	$32, %rsp
	popq	%rbp
	retq
.Lfunc_end8:
	.seh_handlerdata
	.section	.text,"xr",one_only,_ZN4core4iter6traits8iterator8Iterator4fold17hc5cac5e6def12854E
	.seh_endproc
	.section	.xdata,"dr",associative,_ZN4core4iter6traits8iterator8Iterator4fold17hc5cac5e6def12854E
	.p2align	2, 0x0
$cppxdata$_ZN4core4iter6traits8iterator8Iterator4fold17hc5cac5e6def12854E:
	.long	429065506
	.long	2
	.long	($stateUnwindMap$_ZN4core4iter6traits8iterator8Iterator4fold17hc5cac5e6def12854E)@IMGREL
	.long	0
	.long	0
	.long	3
	.long	($ip2state$_ZN4core4iter6traits8iterator8Iterator4fold17hc5cac5e6def12854E)@IMGREL
	.long	136
	.long	0
	.long	1
$stateUnwindMap$_ZN4core4iter6traits8iterator8Iterator4fold17hc5cac5e6def12854E:
	.long	-1
	.long	"?dtor$9@?0?_ZN4core4iter6traits8iterator8Iterator4fold17hc5cac5e6def12854E@4HA"@IMGREL
	.long	0
	.long	"?dtor$2@?0?_ZN4core4iter6traits8iterator8Iterator4fold17hc5cac5e6def12854E@4HA"@IMGREL
$ip2state$_ZN4core4iter6traits8iterator8Iterator4fold17hc5cac5e6def12854E:
	.long	.Lfunc_begin8@IMGREL
	.long	-1
	.long	.Ltmp24@IMGREL+1
	.long	1
	.long	.Ltmp27@IMGREL+1
	.long	-1
	.section	.text,"xr",one_only,_ZN4core4iter6traits8iterator8Iterator4fold17hc5cac5e6def12854E

	.def	_ZN4core4iter6traits8iterator8Iterator5count17h70cf1fe378340bb1E;
	.scl	3;
	.type	32;
	.endef
	.section	.text,"xr",one_only,_ZN4core4iter6traits8iterator8Iterator5count17h70cf1fe378340bb1E
	.p2align	4, 0x90
_ZN4core4iter6traits8iterator8Iterator5count17h70cf1fe378340bb1E:
.seh_proc _ZN4core4iter6traits8iterator8Iterator5count17h70cf1fe378340bb1E
	subq	$40, %rsp
	.seh_stackalloc 40
	.seh_endprologue
	xorl	%eax, %eax
	movl	%eax, %edx
	callq	_ZN4core4iter6traits8iterator8Iterator4fold17hc5cac5e6def12854E
	nop
	addq	$40, %rsp
	retq
	.seh_endproc

	.def	_ZN4core4iter6traits8iterator8Iterator5count28_$u7b$$u7b$closure$u7d$$u7d$17h62c195ffa8c0394eE;
	.scl	3;
	.type	32;
	.endef
	.section	.text,"xr",one_only,_ZN4core4iter6traits8iterator8Iterator5count28_$u7b$$u7b$closure$u7d$$u7d$17h62c195ffa8c0394eE
	.p2align	4, 0x90
_ZN4core4iter6traits8iterator8Iterator5count28_$u7b$$u7b$closure$u7d$$u7d$17h62c195ffa8c0394eE:
.Lfunc_begin9:
.seh_proc _ZN4core4iter6traits8iterator8Iterator5count28_$u7b$$u7b$closure$u7d$$u7d$17h62c195ffa8c0394eE
	.seh_handler __CxxFrameHandler3, @unwind, @except
	pushq	%rbp
	.seh_pushreg %rbp
	subq	$48, %rsp
	.seh_stackalloc 48
	leaq	48(%rsp), %rbp
	.seh_setframe %rbp, 48
	.seh_endprologue
	movq	$-2, -8(%rbp)
	addq	$1, %rdx
	movq	%rdx, -16(%rbp)
	setb	%al
	testb	$1, %al
	jne	.LBB63_2
	movq	-16(%rbp), %rax
	addq	$48, %rsp
	popq	%rbp
	retq
.LBB63_2:
.Ltmp28:
	leaq	str.0(%rip), %rcx
	leaq	__unnamed_13(%rip), %r8
	movl	$28, %edx
	callq	_ZN4core9panicking5panic17h18ebef604ebe8b48E
.Ltmp29:
	jmp	.LBB63_4
.LBB63_4:
	ud2
	.seh_handlerdata
	.long	($cppxdata$_ZN4core4iter6traits8iterator8Iterator5count28_$u7b$$u7b$closure$u7d$$u7d$17h62c195ffa8c0394eE)@IMGREL
	.section	.text,"xr",one_only,_ZN4core4iter6traits8iterator8Iterator5count28_$u7b$$u7b$closure$u7d$$u7d$17h62c195ffa8c0394eE
	.seh_endproc
	.def	"?dtor$3@?0?_ZN4core4iter6traits8iterator8Iterator5count28_$u7b$$u7b$closure$u7d$$u7d$17h62c195ffa8c0394eE@4HA";
	.scl	3;
	.type	32;
	.endef
	.p2align	4, 0x90
"?dtor$3@?0?_ZN4core4iter6traits8iterator8Iterator5count28_$u7b$$u7b$closure$u7d$$u7d$17h62c195ffa8c0394eE@4HA":
.seh_proc "?dtor$3@?0?_ZN4core4iter6traits8iterator8Iterator5count28_$u7b$$u7b$closure$u7d$$u7d$17h62c195ffa8c0394eE@4HA"
.LBB63_3:
	movq	%rdx, 16(%rsp)
	pushq	%rbp
	.seh_pushreg %rbp
	subq	$32, %rsp
	.seh_stackalloc 32
	leaq	48(%rdx), %rbp
	.seh_endprologue
	addq	$32, %rsp
	popq	%rbp
	retq
.Lfunc_end9:
	.seh_handlerdata
	.section	.text,"xr",one_only,_ZN4core4iter6traits8iterator8Iterator5count28_$u7b$$u7b$closure$u7d$$u7d$17h62c195ffa8c0394eE
	.seh_endproc
	.section	.xdata,"dr",associative,_ZN4core4iter6traits8iterator8Iterator5count28_$u7b$$u7b$closure$u7d$$u7d$17h62c195ffa8c0394eE
	.p2align	2, 0x0
$cppxdata$_ZN4core4iter6traits8iterator8Iterator5count28_$u7b$$u7b$closure$u7d$$u7d$17h62c195ffa8c0394eE:
	.long	429065506
	.long	1
	.long	($stateUnwindMap$_ZN4core4iter6traits8iterator8Iterator5count28_$u7b$$u7b$closure$u7d$$u7d$17h62c195ffa8c0394eE)@IMGREL
	.long	0
	.long	0
	.long	3
	.long	($ip2state$_ZN4core4iter6traits8iterator8Iterator5count28_$u7b$$u7b$closure$u7d$$u7d$17h62c195ffa8c0394eE)@IMGREL
	.long	40
	.long	0
	.long	1
$stateUnwindMap$_ZN4core4iter6traits8iterator8Iterator5count28_$u7b$$u7b$closure$u7d$$u7d$17h62c195ffa8c0394eE:
	.long	-1
	.long	"?dtor$3@?0?_ZN4core4iter6traits8iterator8Iterator5count28_$u7b$$u7b$closure$u7d$$u7d$17h62c195ffa8c0394eE@4HA"@IMGREL
$ip2state$_ZN4core4iter6traits8iterator8Iterator5count28_$u7b$$u7b$closure$u7d$$u7d$17h62c195ffa8c0394eE:
	.long	.Lfunc_begin9@IMGREL
	.long	-1
	.long	.Ltmp28@IMGREL+1
	.long	0
	.long	.Ltmp29@IMGREL+1
	.long	-1
	.section	.text,"xr",one_only,_ZN4core4iter6traits8iterator8Iterator5count28_$u7b$$u7b$closure$u7d$$u7d$17h62c195ffa8c0394eE

	.def	_ZN4core4iter6traits8iterator8Iterator7collect17h14d52ea062e44a90E;
	.scl	3;
	.type	32;
	.endef
	.section	.text,"xr",one_only,_ZN4core4iter6traits8iterator8Iterator7collect17h14d52ea062e44a90E
	.p2align	4, 0x90
_ZN4core4iter6traits8iterator8Iterator7collect17h14d52ea062e44a90E:
.seh_proc _ZN4core4iter6traits8iterator8Iterator7collect17h14d52ea062e44a90E
	subq	$40, %rsp
	.seh_stackalloc 40
	.seh_endprologue
	movq	%rcx, %rax
	movq	%rax, 32(%rsp)
	callq	_ZN95_$LT$alloc..vec..Vec$LT$T$GT$$u20$as$u20$core..iter..traits..collect..FromIterator$LT$T$GT$$GT$9from_iter17he7a9f0d674c23aa3E
	movq	32(%rsp), %rax
	addq	$40, %rsp
	retq
	.seh_endproc

	.def	_ZN4core4time8Duration9as_millis17hde7fe9c24c8ffb98E;
	.scl	3;
	.type	32;
	.endef
	.section	.text,"xr",one_only,_ZN4core4time8Duration9as_millis17hde7fe9c24c8ffb98E
	.p2align	4, 0x90
_ZN4core4time8Duration9as_millis17hde7fe9c24c8ffb98E:
	movq	(%rcx), %rax
	movl	$1000, %edx
	mulq	%rdx
	movl	8(%rcx), %ecx
	imulq	$1125899907, %rcx, %rcx
	shrq	$50, %rcx
	addq	%rcx, %rax
	adcq	$0, %rdx
	retq

	.def	_ZN4core5alloc6layout6Layout5array5inner17hd01efe713a49124aE;
	.scl	3;
	.type	32;
	.endef
	.section	.text,"xr",one_only,_ZN4core5alloc6layout6Layout5array5inner17hd01efe713a49124aE
	.p2align	4, 0x90
_ZN4core5alloc6layout6Layout5array5inner17hd01efe713a49124aE:
.seh_proc _ZN4core5alloc6layout6Layout5array5inner17hd01efe713a49124aE
	subq	$120, %rsp
	.seh_stackalloc 120
	.seh_endprologue
	movq	%r8, 40(%rsp)
	movq	%rdx, 48(%rsp)
	movq	%rcx, 56(%rsp)
	cmpq	$0, %rcx
	jne	.LBB66_2
	movb	$0, 87(%rsp)
	jmp	.LBB66_5
.LBB66_2:
	movq	56(%rsp), %rax
	movq	48(%rsp), %rcx
	movq	%rcx, 104(%rsp)
	movq	104(%rsp), %rdx
	subq	$1, %rdx
	movabsq	$9223372036854775807, %rcx
	subq	%rdx, %rcx
	movq	%rcx, 32(%rsp)
	cmpq	$0, %rax
	sete	%al
	testb	$1, %al
	jne	.LBB66_4
	movq	56(%rsp), %rcx
	movq	32(%rsp), %rax
	xorl	%edx, %edx
	divq	%rcx
	movq	%rax, %rcx
	movq	40(%rsp), %rax
	cmpq	%rcx, %rax
	seta	%al
	andb	$1, %al
	movb	%al, 87(%rsp)
	jmp	.LBB66_5
.LBB66_4:
	leaq	str.1(%rip), %rcx
	leaq	__unnamed_14(%rip), %r8
	movl	$25, %edx
	callq	_ZN4core9panicking5panic17h18ebef604ebe8b48E
	ud2
.LBB66_5:
	testb	$1, 87(%rsp)
	jne	.LBB66_7
	movq	48(%rsp), %rax
	movq	40(%rsp), %rdx
	movq	56(%rsp), %rcx
	imulq	%rdx, %rcx
	movq	%rax, 112(%rsp)
	movq	112(%rsp), %rax
	movq	%rcx, 96(%rsp)
	movq	%rax, 88(%rsp)
	movq	88(%rsp), %rcx
	movq	96(%rsp), %rax
	movq	%rcx, 64(%rsp)
	movq	%rax, 72(%rsp)
	jmp	.LBB66_8
.LBB66_7:
	movq	$0, 64(%rsp)
.LBB66_8:
	movq	64(%rsp), %rax
	movq	72(%rsp), %rdx
	addq	$120, %rsp
	retq
	.seh_endproc

	.def	_ZN4core6option15Option$LT$T$GT$11map_or_else17h7f5ec26e7c82e5ddE;
	.scl	3;
	.type	32;
	.endef
	.section	.text,"xr",one_only,_ZN4core6option15Option$LT$T$GT$11map_or_else17h7f5ec26e7c82e5ddE
	.p2align	4, 0x90
_ZN4core6option15Option$LT$T$GT$11map_or_else17h7f5ec26e7c82e5ddE:
.Lfunc_begin10:
.seh_proc _ZN4core6option15Option$LT$T$GT$11map_or_else17h7f5ec26e7c82e5ddE
	.seh_handler __CxxFrameHandler3, @unwind, @except
	pushq	%rbp
	.seh_pushreg %rbp
	subq	$112, %rsp
	.seh_stackalloc 112
	leaq	112(%rsp), %rbp
	.seh_setframe %rbp, 112
	.seh_endprologue
	movq	$-2, -8(%rbp)
	movq	%r9, -72(%rbp)
	movq	%rcx, -64(%rbp)
	movq	%rcx, -56(%rbp)
	movq	%rdx, -48(%rbp)
	movq	%r8, -40(%rbp)
	movb	$1, -9(%rbp)
	movb	$1, -10(%rbp)
	movq	-48(%rbp), %rax
	cmpq	$0, %rax
	sete	%al
	testb	$1, %al
	jne	.LBB67_1
	jmp	.LBB67_2
.LBB67_1:
	movq	-72(%rbp), %rdx
	movq	-64(%rbp), %rcx
	movb	$0, -9(%rbp)
.Ltmp32:
	callq	_ZN5alloc3fmt6format28_$u7b$$u7b$closure$u7d$$u7d$17hd9fb679593fbc382E
.Ltmp33:
	jmp	.LBB67_6
.LBB67_2:
	movq	-64(%rbp), %rcx
	movq	-48(%rbp), %rdx
	movq	-40(%rbp), %rax
	movb	$0, -10(%rbp)
	movq	%rdx, -32(%rbp)
	movq	%rax, -24(%rbp)
	movq	-32(%rbp), %rdx
	movq	-24(%rbp), %r8
.Ltmp30:
	callq	_ZN4core3ops8function6FnOnce9call_once17h5239783648088350E
.Ltmp31:
	jmp	.LBB67_4
.LBB67_4:
	jmp	.LBB67_5
.LBB67_5:
	testb	$1, -10(%rbp)
	jne	.LBB67_11
	jmp	.LBB67_10
.LBB67_6:
	jmp	.LBB67_5
.LBB67_10:
	testb	$1, -9(%rbp)
	jne	.LBB67_15
	jmp	.LBB67_14
.LBB67_11:
	jmp	.LBB67_10
.LBB67_14:
	movq	-56(%rbp), %rax
	addq	$112, %rsp
	popq	%rbp
	retq
.LBB67_15:
	jmp	.LBB67_14
	.seh_handlerdata
	.long	($cppxdata$_ZN4core6option15Option$LT$T$GT$11map_or_else17h7f5ec26e7c82e5ddE)@IMGREL
	.section	.text,"xr",one_only,_ZN4core6option15Option$LT$T$GT$11map_or_else17h7f5ec26e7c82e5ddE
	.seh_endproc
	.def	"?dtor$3@?0?_ZN4core6option15Option$LT$T$GT$11map_or_else17h7f5ec26e7c82e5ddE@4HA";
	.scl	3;
	.type	32;
	.endef
	.p2align	4, 0x90
"?dtor$3@?0?_ZN4core6option15Option$LT$T$GT$11map_or_else17h7f5ec26e7c82e5ddE@4HA":
.seh_proc "?dtor$3@?0?_ZN4core6option15Option$LT$T$GT$11map_or_else17h7f5ec26e7c82e5ddE@4HA"
.LBB67_3:
	movq	%rdx, 16(%rsp)
	pushq	%rbp
	.seh_pushreg %rbp
	subq	$32, %rsp
	.seh_stackalloc 32
	leaq	112(%rdx), %rbp
	.seh_endprologue
	testb	$1, -10(%rbp)
	jne	.LBB67_9
	jmp	.LBB67_8
.LBB67_8:
	addq	$32, %rsp
	popq	%rbp
	retq
.LBB67_9:
	addq	$32, %rsp
	popq	%rbp
	retq
	.seh_handlerdata
	.section	.text,"xr",one_only,_ZN4core6option15Option$LT$T$GT$11map_or_else17h7f5ec26e7c82e5ddE
	.seh_endproc
	.def	"?dtor$7@?0?_ZN4core6option15Option$LT$T$GT$11map_or_else17h7f5ec26e7c82e5ddE@4HA";
	.scl	3;
	.type	32;
	.endef
	.p2align	4, 0x90
"?dtor$7@?0?_ZN4core6option15Option$LT$T$GT$11map_or_else17h7f5ec26e7c82e5ddE@4HA":
.seh_proc "?dtor$7@?0?_ZN4core6option15Option$LT$T$GT$11map_or_else17h7f5ec26e7c82e5ddE@4HA"
.LBB67_7:
	movq	%rdx, 16(%rsp)
	pushq	%rbp
	.seh_pushreg %rbp
	subq	$32, %rsp
	.seh_stackalloc 32
	leaq	112(%rdx), %rbp
	.seh_endprologue
	testb	$1, -9(%rbp)
	jne	.LBB67_13
	jmp	.LBB67_12
.LBB67_12:
	addq	$32, %rsp
	popq	%rbp
	retq
.LBB67_13:
	jmp	.LBB67_12
.Lfunc_end10:
	.seh_handlerdata
	.section	.text,"xr",one_only,_ZN4core6option15Option$LT$T$GT$11map_or_else17h7f5ec26e7c82e5ddE
	.seh_endproc
	.section	.xdata,"dr",associative,_ZN4core6option15Option$LT$T$GT$11map_or_else17h7f5ec26e7c82e5ddE
	.p2align	2, 0x0
$cppxdata$_ZN4core6option15Option$LT$T$GT$11map_or_else17h7f5ec26e7c82e5ddE:
	.long	429065506
	.long	2
	.long	($stateUnwindMap$_ZN4core6option15Option$LT$T$GT$11map_or_else17h7f5ec26e7c82e5ddE)@IMGREL
	.long	0
	.long	0
	.long	3
	.long	($ip2state$_ZN4core6option15Option$LT$T$GT$11map_or_else17h7f5ec26e7c82e5ddE)@IMGREL
	.long	104
	.long	0
	.long	1
$stateUnwindMap$_ZN4core6option15Option$LT$T$GT$11map_or_else17h7f5ec26e7c82e5ddE:
	.long	-1
	.long	"?dtor$7@?0?_ZN4core6option15Option$LT$T$GT$11map_or_else17h7f5ec26e7c82e5ddE@4HA"@IMGREL
	.long	0
	.long	"?dtor$3@?0?_ZN4core6option15Option$LT$T$GT$11map_or_else17h7f5ec26e7c82e5ddE@4HA"@IMGREL
$ip2state$_ZN4core6option15Option$LT$T$GT$11map_or_else17h7f5ec26e7c82e5ddE:
	.long	.Lfunc_begin10@IMGREL
	.long	-1
	.long	.Ltmp32@IMGREL+1
	.long	1
	.long	.Ltmp31@IMGREL+1
	.long	-1
	.section	.text,"xr",one_only,_ZN4core6option15Option$LT$T$GT$11map_or_else17h7f5ec26e7c82e5ddE

	.def	_ZN4core6result19Result$LT$T$C$E$GT$6unwrap17h36519de16bc00574E;
	.scl	3;
	.type	32;
	.endef
	.section	.text,"xr",one_only,_ZN4core6result19Result$LT$T$C$E$GT$6unwrap17h36519de16bc00574E
	.p2align	4, 0x90
_ZN4core6result19Result$LT$T$C$E$GT$6unwrap17h36519de16bc00574E:
.Lfunc_begin11:
.seh_proc _ZN4core6result19Result$LT$T$C$E$GT$6unwrap17h36519de16bc00574E
	.seh_handler __CxxFrameHandler3, @unwind, @except
	pushq	%rbp
	.seh_pushreg %rbp
	subq	$80, %rsp
	.seh_stackalloc 80
	leaq	80(%rsp), %rbp
	.seh_setframe %rbp, 80
	.seh_endprologue
	movq	$-2, -8(%rbp)
	movq	%rdx, -40(%rbp)
	movq	%rcx, -32(%rbp)
	cmpq	$0, (%rcx)
	jne	.LBB68_2
	movq	-32(%rbp), %rcx
	movq	8(%rcx), %rax
	movl	16(%rcx), %edx
	addq	$80, %rsp
	popq	%rbp
	retq
.LBB68_2:
	movq	-40(%rbp), %rcx
	movq	-32(%rbp), %rax
	movq	8(%rax), %rdx
	movl	16(%rax), %eax
	movq	%rdx, -24(%rbp)
	movl	%eax, -16(%rbp)
.Ltmp34:
	movq	%rsp, %rax
	movq	%rcx, 32(%rax)
	leaq	__unnamed_15(%rip), %rcx
	leaq	__unnamed_16(%rip), %r9
	movl	$43, %edx
	leaq	-24(%rbp), %r8
	callq	_ZN4core6result13unwrap_failed17h2fa715f30b6138faE
.Ltmp35:
	jmp	.LBB68_4
.LBB68_4:
	ud2
	.seh_handlerdata
	.long	($cppxdata$_ZN4core6result19Result$LT$T$C$E$GT$6unwrap17h36519de16bc00574E)@IMGREL
	.section	.text,"xr",one_only,_ZN4core6result19Result$LT$T$C$E$GT$6unwrap17h36519de16bc00574E
	.seh_endproc
	.def	"?dtor$3@?0?_ZN4core6result19Result$LT$T$C$E$GT$6unwrap17h36519de16bc00574E@4HA";
	.scl	3;
	.type	32;
	.endef
	.p2align	4, 0x90
"?dtor$3@?0?_ZN4core6result19Result$LT$T$C$E$GT$6unwrap17h36519de16bc00574E@4HA":
.seh_proc "?dtor$3@?0?_ZN4core6result19Result$LT$T$C$E$GT$6unwrap17h36519de16bc00574E@4HA"
.LBB68_3:
	movq	%rdx, 16(%rsp)
	pushq	%rbp
	.seh_pushreg %rbp
	subq	$48, %rsp
	.seh_stackalloc 48
	leaq	80(%rdx), %rbp
	.seh_endprologue
	addq	$48, %rsp
	popq	%rbp
	retq
.Lfunc_end11:
	.seh_handlerdata
	.section	.text,"xr",one_only,_ZN4core6result19Result$LT$T$C$E$GT$6unwrap17h36519de16bc00574E
	.seh_endproc
	.section	.xdata,"dr",associative,_ZN4core6result19Result$LT$T$C$E$GT$6unwrap17h36519de16bc00574E
	.p2align	2, 0x0
$cppxdata$_ZN4core6result19Result$LT$T$C$E$GT$6unwrap17h36519de16bc00574E:
	.long	429065506
	.long	1
	.long	($stateUnwindMap$_ZN4core6result19Result$LT$T$C$E$GT$6unwrap17h36519de16bc00574E)@IMGREL
	.long	0
	.long	0
	.long	3
	.long	($ip2state$_ZN4core6result19Result$LT$T$C$E$GT$6unwrap17h36519de16bc00574E)@IMGREL
	.long	72
	.long	0
	.long	1
$stateUnwindMap$_ZN4core6result19Result$LT$T$C$E$GT$6unwrap17h36519de16bc00574E:
	.long	-1
	.long	"?dtor$3@?0?_ZN4core6result19Result$LT$T$C$E$GT$6unwrap17h36519de16bc00574E@4HA"@IMGREL
$ip2state$_ZN4core6result19Result$LT$T$C$E$GT$6unwrap17h36519de16bc00574E:
	.long	.Lfunc_begin11@IMGREL
	.long	-1
	.long	.Ltmp34@IMGREL+1
	.long	0
	.long	.Ltmp35@IMGREL+1
	.long	-1
	.section	.text,"xr",one_only,_ZN4core6result19Result$LT$T$C$E$GT$6unwrap17h36519de16bc00574E

	.def	_ZN4core6result19Result$LT$T$C$E$GT$6unwrap17h91f87130e8a4e3c8E;
	.scl	3;
	.type	32;
	.endef
	.section	.text,"xr",one_only,_ZN4core6result19Result$LT$T$C$E$GT$6unwrap17h91f87130e8a4e3c8E
	.p2align	4, 0x90
_ZN4core6result19Result$LT$T$C$E$GT$6unwrap17h91f87130e8a4e3c8E:
.Lfunc_begin12:
.seh_proc _ZN4core6result19Result$LT$T$C$E$GT$6unwrap17h91f87130e8a4e3c8E
	.seh_handler __CxxFrameHandler3, @unwind, @except
	pushq	%rbp
	.seh_pushreg %rbp
	subq	$80, %rsp
	.seh_stackalloc 80
	leaq	80(%rsp), %rbp
	.seh_setframe %rbp, 80
	.seh_endprologue
	movq	$-2, -8(%rbp)
	movq	%rdx, -32(%rbp)
	movq	%rcx, -24(%rbp)
	movb	(%rcx), %al
	andb	$1, %al
	movzbl	%al, %eax
	cmpq	$0, %rax
	jne	.LBB69_2
	movq	-24(%rbp), %rcx
	movq	8(%rcx), %rax
	movq	16(%rcx), %rdx
	addq	$80, %rsp
	popq	%rbp
	retq
.LBB69_2:
	movq	-32(%rbp), %rcx
	movq	-24(%rbp), %rax
	movb	1(%rax), %al
	movb	%al, -9(%rbp)
.Ltmp36:
	movq	%rsp, %rax
	movq	%rcx, 32(%rax)
	leaq	__unnamed_15(%rip), %rcx
	leaq	__unnamed_17(%rip), %r9
	movl	$43, %edx
	leaq	-9(%rbp), %r8
	callq	_ZN4core6result13unwrap_failed17h2fa715f30b6138faE
.Ltmp37:
	jmp	.LBB69_4
.LBB69_4:
	ud2
	.seh_handlerdata
	.long	($cppxdata$_ZN4core6result19Result$LT$T$C$E$GT$6unwrap17h91f87130e8a4e3c8E)@IMGREL
	.section	.text,"xr",one_only,_ZN4core6result19Result$LT$T$C$E$GT$6unwrap17h91f87130e8a4e3c8E
	.seh_endproc
	.def	"?dtor$3@?0?_ZN4core6result19Result$LT$T$C$E$GT$6unwrap17h91f87130e8a4e3c8E@4HA";
	.scl	3;
	.type	32;
	.endef
	.p2align	4, 0x90
"?dtor$3@?0?_ZN4core6result19Result$LT$T$C$E$GT$6unwrap17h91f87130e8a4e3c8E@4HA":
.seh_proc "?dtor$3@?0?_ZN4core6result19Result$LT$T$C$E$GT$6unwrap17h91f87130e8a4e3c8E@4HA"
.LBB69_3:
	movq	%rdx, 16(%rsp)
	pushq	%rbp
	.seh_pushreg %rbp
	subq	$48, %rsp
	.seh_stackalloc 48
	leaq	80(%rdx), %rbp
	.seh_endprologue
	addq	$48, %rsp
	popq	%rbp
	retq
.Lfunc_end12:
	.seh_handlerdata
	.section	.text,"xr",one_only,_ZN4core6result19Result$LT$T$C$E$GT$6unwrap17h91f87130e8a4e3c8E
	.seh_endproc
	.section	.xdata,"dr",associative,_ZN4core6result19Result$LT$T$C$E$GT$6unwrap17h91f87130e8a4e3c8E
	.p2align	2, 0x0
$cppxdata$_ZN4core6result19Result$LT$T$C$E$GT$6unwrap17h91f87130e8a4e3c8E:
	.long	429065506
	.long	1
	.long	($stateUnwindMap$_ZN4core6result19Result$LT$T$C$E$GT$6unwrap17h91f87130e8a4e3c8E)@IMGREL
	.long	0
	.long	0
	.long	3
	.long	($ip2state$_ZN4core6result19Result$LT$T$C$E$GT$6unwrap17h91f87130e8a4e3c8E)@IMGREL
	.long	72
	.long	0
	.long	1
$stateUnwindMap$_ZN4core6result19Result$LT$T$C$E$GT$6unwrap17h91f87130e8a4e3c8E:
	.long	-1
	.long	"?dtor$3@?0?_ZN4core6result19Result$LT$T$C$E$GT$6unwrap17h91f87130e8a4e3c8E@4HA"@IMGREL
$ip2state$_ZN4core6result19Result$LT$T$C$E$GT$6unwrap17h91f87130e8a4e3c8E:
	.long	.Lfunc_begin12@IMGREL
	.long	-1
	.long	.Ltmp36@IMGREL+1
	.long	0
	.long	.Ltmp37@IMGREL+1
	.long	-1
	.section	.text,"xr",one_only,_ZN4core6result19Result$LT$T$C$E$GT$6unwrap17h91f87130e8a4e3c8E

	.def	_ZN4core6result19Result$LT$T$C$E$GT$6unwrap17h99bc2aaf963ead95E;
	.scl	3;
	.type	32;
	.endef
	.section	.text,"xr",one_only,_ZN4core6result19Result$LT$T$C$E$GT$6unwrap17h99bc2aaf963ead95E
	.p2align	4, 0x90
_ZN4core6result19Result$LT$T$C$E$GT$6unwrap17h99bc2aaf963ead95E:
.Lfunc_begin13:
.seh_proc _ZN4core6result19Result$LT$T$C$E$GT$6unwrap17h99bc2aaf963ead95E
	.seh_handler __CxxFrameHandler3, @unwind, @except
	pushq	%rbp
	.seh_pushreg %rbp
	subq	$80, %rsp
	.seh_stackalloc 80
	leaq	80(%rsp), %rbp
	.seh_setframe %rbp, 80
	.seh_endprologue
	movq	$-2, -8(%rbp)
	movq	%rdx, -40(%rbp)
	movq	%rcx, -24(%rbp)
	movq	-24(%rbp), %rax
	movq	%rax, -32(%rbp)
	movb	-32(%rbp), %al
	andb	$1, %al
	movzbl	%al, %eax
	cmpq	$0, %rax
	jne	.LBB70_2
	movl	-28(%rbp), %eax
	addq	$80, %rsp
	popq	%rbp
	retq
.LBB70_2:
	movq	-40(%rbp), %rcx
	movb	-31(%rbp), %al
	movb	%al, -9(%rbp)
.Ltmp38:
	movq	%rsp, %rax
	movq	%rcx, 32(%rax)
	leaq	__unnamed_15(%rip), %rcx
	leaq	__unnamed_17(%rip), %r9
	movl	$43, %edx
	leaq	-9(%rbp), %r8
	callq	_ZN4core6result13unwrap_failed17h2fa715f30b6138faE
.Ltmp39:
	jmp	.LBB70_4
.LBB70_4:
	ud2
	.seh_handlerdata
	.long	($cppxdata$_ZN4core6result19Result$LT$T$C$E$GT$6unwrap17h99bc2aaf963ead95E)@IMGREL
	.section	.text,"xr",one_only,_ZN4core6result19Result$LT$T$C$E$GT$6unwrap17h99bc2aaf963ead95E
	.seh_endproc
	.def	"?dtor$3@?0?_ZN4core6result19Result$LT$T$C$E$GT$6unwrap17h99bc2aaf963ead95E@4HA";
	.scl	3;
	.type	32;
	.endef
	.p2align	4, 0x90
"?dtor$3@?0?_ZN4core6result19Result$LT$T$C$E$GT$6unwrap17h99bc2aaf963ead95E@4HA":
.seh_proc "?dtor$3@?0?_ZN4core6result19Result$LT$T$C$E$GT$6unwrap17h99bc2aaf963ead95E@4HA"
.LBB70_3:
	movq	%rdx, 16(%rsp)
	pushq	%rbp
	.seh_pushreg %rbp
	subq	$48, %rsp
	.seh_stackalloc 48
	leaq	80(%rdx), %rbp
	.seh_endprologue
	addq	$48, %rsp
	popq	%rbp
	retq
.Lfunc_end13:
	.seh_handlerdata
	.section	.text,"xr",one_only,_ZN4core6result19Result$LT$T$C$E$GT$6unwrap17h99bc2aaf963ead95E
	.seh_endproc
	.section	.xdata,"dr",associative,_ZN4core6result19Result$LT$T$C$E$GT$6unwrap17h99bc2aaf963ead95E
	.p2align	2, 0x0
$cppxdata$_ZN4core6result19Result$LT$T$C$E$GT$6unwrap17h99bc2aaf963ead95E:
	.long	429065506
	.long	1
	.long	($stateUnwindMap$_ZN4core6result19Result$LT$T$C$E$GT$6unwrap17h99bc2aaf963ead95E)@IMGREL
	.long	0
	.long	0
	.long	3
	.long	($ip2state$_ZN4core6result19Result$LT$T$C$E$GT$6unwrap17h99bc2aaf963ead95E)@IMGREL
	.long	72
	.long	0
	.long	1
$stateUnwindMap$_ZN4core6result19Result$LT$T$C$E$GT$6unwrap17h99bc2aaf963ead95E:
	.long	-1
	.long	"?dtor$3@?0?_ZN4core6result19Result$LT$T$C$E$GT$6unwrap17h99bc2aaf963ead95E@4HA"@IMGREL
$ip2state$_ZN4core6result19Result$LT$T$C$E$GT$6unwrap17h99bc2aaf963ead95E:
	.long	.Lfunc_begin13@IMGREL
	.long	-1
	.long	.Ltmp38@IMGREL+1
	.long	0
	.long	.Ltmp39@IMGREL+1
	.long	-1
	.section	.text,"xr",one_only,_ZN4core6result19Result$LT$T$C$E$GT$6unwrap17h99bc2aaf963ead95E

	.def	_ZN4core6result19Result$LT$T$C$E$GT$7map_err17h2464bb41042077bcE;
	.scl	3;
	.type	32;
	.endef
	.section	.text,"xr",one_only,_ZN4core6result19Result$LT$T$C$E$GT$7map_err17h2464bb41042077bcE
	.p2align	4, 0x90
_ZN4core6result19Result$LT$T$C$E$GT$7map_err17h2464bb41042077bcE:
.seh_proc _ZN4core6result19Result$LT$T$C$E$GT$7map_err17h2464bb41042077bcE
	subq	$88, %rsp
	.seh_stackalloc 88
	.seh_endprologue
	movq	%rcx, 32(%rsp)
	movq	%rdx, 40(%rsp)
	movb	$1, 87(%rsp)
	movabsq	$-9223372036854775807, %rdx
	movl	$1, %eax
	xorl	%ecx, %ecx
	cmpq	%rdx, 32(%rsp)
	cmoveq	%rcx, %rax
	cmpq	$0, %rax
	jne	.LBB71_2
	movabsq	$-9223372036854775807, %rax
	movq	%rax, 48(%rsp)
	jmp	.LBB71_3
.LBB71_2:
	movq	32(%rsp), %rcx
	movq	40(%rsp), %rax
	movb	$0, 87(%rsp)
	movq	%rcx, 64(%rsp)
	movq	%rax, 72(%rsp)
	movq	64(%rsp), %rcx
	movq	72(%rsp), %rdx
	callq	_ZN5alloc7raw_vec14handle_reserve28_$u7b$$u7b$closure$u7d$$u7d$17hc4e6f94632667809E
	movq	%rax, 48(%rsp)
	movq	%rdx, 56(%rsp)
.LBB71_3:
	testb	$1, 87(%rsp)
	jne	.LBB71_5
.LBB71_4:
	movq	48(%rsp), %rax
	movq	56(%rsp), %rdx
	addq	$88, %rsp
	retq
.LBB71_5:
	jmp	.LBB71_4
	.seh_endproc

	.def	_ZN4core6result19Result$LT$T$C$E$GT$7map_err17ha12df8ab4517afd0E;
	.scl	3;
	.type	32;
	.endef
	.section	.text,"xr",one_only,_ZN4core6result19Result$LT$T$C$E$GT$7map_err17ha12df8ab4517afd0E
	.p2align	4, 0x90
_ZN4core6result19Result$LT$T$C$E$GT$7map_err17ha12df8ab4517afd0E:
.seh_proc _ZN4core6result19Result$LT$T$C$E$GT$7map_err17ha12df8ab4517afd0E
	subq	$88, %rsp
	.seh_stackalloc 88
	.seh_endprologue
	movq	%r9, 40(%rsp)
	movq	%rcx, 48(%rsp)
	movq	%rcx, 56(%rsp)
	movq	%rdx, 64(%rsp)
	movq	%r8, 72(%rsp)
	movb	$1, 87(%rsp)
	movq	64(%rsp), %rdx
	xorl	%eax, %eax
	movl	$1, %ecx
	cmpq	$0, %rdx
	cmoveq	%rcx, %rax
	cmpq	$0, %rax
	jne	.LBB72_2
	movq	48(%rsp), %rax
	movq	64(%rsp), %rdx
	movq	72(%rsp), %rcx
	movq	%rdx, 8(%rax)
	movq	%rcx, 16(%rax)
	movq	$0, (%rax)
	jmp	.LBB72_3
.LBB72_2:
	movq	40(%rsp), %rcx
	movb	$0, 87(%rsp)
	callq	_ZN5alloc7raw_vec11finish_grow28_$u7b$$u7b$closure$u7d$$u7d$17hd27168ff20e4720fE
	movq	%rax, %rcx
	movq	48(%rsp), %rax
	movq	%rcx, 8(%rax)
	movq	%rdx, 16(%rax)
	movq	$1, (%rax)
.LBB72_3:
	testb	$1, 87(%rsp)
	jne	.LBB72_5
.LBB72_4:
	movq	56(%rsp), %rax
	addq	$88, %rsp
	retq
.LBB72_5:
	jmp	.LBB72_4
	.seh_endproc

	.def	_ZN4core6result19Result$LT$T$C$E$GT$7map_err17hf55ce1235bf6f368E;
	.scl	3;
	.type	32;
	.endef
	.section	.text,"xr",one_only,_ZN4core6result19Result$LT$T$C$E$GT$7map_err17hf55ce1235bf6f368E
	.p2align	4, 0x90
_ZN4core6result19Result$LT$T$C$E$GT$7map_err17hf55ce1235bf6f368E:
.seh_proc _ZN4core6result19Result$LT$T$C$E$GT$7map_err17hf55ce1235bf6f368E
	subq	$72, %rsp
	.seh_stackalloc 72
	.seh_endprologue
	movq	%rcx, 32(%rsp)
	movq	%rcx, 40(%rsp)
	movq	%rdx, 48(%rsp)
	movq	%r8, 56(%rsp)
	movb	$1, 71(%rsp)
	xorl	%eax, %eax
	movl	$1, %ecx
	cmpq	$0, 48(%rsp)
	cmoveq	%rcx, %rax
	cmpq	$0, %rax
	jne	.LBB73_2
	movq	32(%rsp), %rax
	movq	48(%rsp), %rdx
	movq	56(%rsp), %rcx
	movq	%rdx, 8(%rax)
	movq	%rcx, 16(%rax)
	movq	$0, (%rax)
	jmp	.LBB73_3
.LBB73_2:
	movb	$0, 71(%rsp)
	callq	_ZN5alloc7raw_vec11finish_grow28_$u7b$$u7b$closure$u7d$$u7d$17h0084b972faca5708E
	movq	%rax, %rcx
	movq	32(%rsp), %rax
	movq	%rcx, 8(%rax)
	movq	%rdx, 16(%rax)
	movq	$1, (%rax)
.LBB73_3:
	testb	$1, 71(%rsp)
	jne	.LBB73_5
.LBB73_4:
	movq	40(%rsp), %rax
	addq	$72, %rsp
	retq
.LBB73_5:
	jmp	.LBB73_4
	.seh_endproc

	.def	_ZN4core9panicking13assert_failed17hc475eab5f9230259E;
	.scl	3;
	.type	32;
	.endef
	.section	.text,"xr",one_only,_ZN4core9panicking13assert_failed17hc475eab5f9230259E
	.p2align	4, 0x90
_ZN4core9panicking13assert_failed17hc475eab5f9230259E:
.seh_proc _ZN4core9panicking13assert_failed17hc475eab5f9230259E
	subq	$136, %rsp
	.seh_stackalloc 136
	.seh_endprologue
	movq	%rdx, %rax
	movq	176(%rsp), %rdx
	movq	%rax, 64(%rsp)
	movq	%r8, 72(%rsp)
	movups	(%r9), %xmm0
	movups	16(%r9), %xmm1
	movups	32(%r9), %xmm2
	movaps	%xmm2, 112(%rsp)
	movaps	%xmm1, 96(%rsp)
	movaps	%xmm0, 80(%rsp)
	movq	%rsp, %rax
	movq	%rdx, 48(%rax)
	leaq	80(%rsp), %rdx
	movq	%rdx, 40(%rax)
	leaq	__unnamed_18(%rip), %r8
	movq	%r8, 32(%rax)
	leaq	64(%rsp), %rdx
	leaq	72(%rsp), %r9
	callq	_ZN4core9panicking19assert_failed_inner17hda5058155c3d4313E
	ud2
	.seh_endproc

	.def	_ZN52_$LT$T$u20$as$u20$alloc..slice..hack..ConvertVec$GT$6to_vec17ha107d0bb5072e347E;
	.scl	3;
	.type	32;
	.endef
	.section	.text,"xr",one_only,_ZN52_$LT$T$u20$as$u20$alloc..slice..hack..ConvertVec$GT$6to_vec17ha107d0bb5072e347E
	.p2align	4, 0x90
_ZN52_$LT$T$u20$as$u20$alloc..slice..hack..ConvertVec$GT$6to_vec17ha107d0bb5072e347E:
.Lfunc_begin14:
.seh_proc _ZN52_$LT$T$u20$as$u20$alloc..slice..hack..ConvertVec$GT$6to_vec17ha107d0bb5072e347E
	.seh_handler __CxxFrameHandler3, @unwind, @except
	pushq	%rbp
	.seh_pushreg %rbp
	subq	$112, %rsp
	.seh_stackalloc 112
	leaq	112(%rsp), %rbp
	.seh_setframe %rbp, 112
	.seh_endprologue
	movq	$-2, -8(%rbp)
	movq	%r8, -72(%rbp)
	movq	%rdx, -80(%rbp)
	movq	%rcx, %rax
	movq	-72(%rbp), %rcx
	movq	%rax, -64(%rbp)
	movq	%rax, -56(%rbp)
.Ltmp40:
	xorl	%eax, %eax
	movb	%al, %dl
	callq	_ZN5alloc7raw_vec19RawVec$LT$T$C$A$GT$11allocate_in17h342647ff78f651ecE
.Ltmp41:
	movq	%rdx, -48(%rbp)
	movq	%rax, -40(%rbp)
	jmp	.LBB75_2
.LBB75_2:
	movq	-72(%rbp), %r8
	movq	-80(%rbp), %rdx
	movq	-48(%rbp), %rax
	movq	-40(%rbp), %rcx
	movq	%rcx, -32(%rbp)
	movq	%rax, -24(%rbp)
	movq	$0, -16(%rbp)
	movq	-32(%rbp), %rcx
	callq	memcpy
	movq	-72(%rbp), %rdx
	movq	-64(%rbp), %rcx
	movq	-56(%rbp), %rax
	movq	%rdx, -16(%rbp)
	movq	-32(%rbp), %rdx
	movq	%rdx, (%rcx)
	movq	-24(%rbp), %rdx
	movq	%rdx, 8(%rcx)
	movq	-16(%rbp), %rdx
	movq	%rdx, 16(%rcx)
	addq	$112, %rsp
	popq	%rbp
	retq
	.seh_handlerdata
	.long	($cppxdata$_ZN52_$LT$T$u20$as$u20$alloc..slice..hack..ConvertVec$GT$6to_vec17ha107d0bb5072e347E)@IMGREL
	.section	.text,"xr",one_only,_ZN52_$LT$T$u20$as$u20$alloc..slice..hack..ConvertVec$GT$6to_vec17ha107d0bb5072e347E
	.seh_endproc
	.def	"?dtor$1@?0?_ZN52_$LT$T$u20$as$u20$alloc..slice..hack..ConvertVec$GT$6to_vec17ha107d0bb5072e347E@4HA";
	.scl	3;
	.type	32;
	.endef
	.p2align	4, 0x90
"?dtor$1@?0?_ZN52_$LT$T$u20$as$u20$alloc..slice..hack..ConvertVec$GT$6to_vec17ha107d0bb5072e347E@4HA":
.seh_proc "?dtor$1@?0?_ZN52_$LT$T$u20$as$u20$alloc..slice..hack..ConvertVec$GT$6to_vec17ha107d0bb5072e347E@4HA"
.LBB75_1:
	movq	%rdx, 16(%rsp)
	pushq	%rbp
	.seh_pushreg %rbp
	subq	$32, %rsp
	.seh_stackalloc 32
	leaq	112(%rdx), %rbp
	.seh_endprologue
	addq	$32, %rsp
	popq	%rbp
	retq
.Lfunc_end14:
	.seh_handlerdata
	.section	.text,"xr",one_only,_ZN52_$LT$T$u20$as$u20$alloc..slice..hack..ConvertVec$GT$6to_vec17ha107d0bb5072e347E
	.seh_endproc
	.section	.xdata,"dr",associative,_ZN52_$LT$T$u20$as$u20$alloc..slice..hack..ConvertVec$GT$6to_vec17ha107d0bb5072e347E
	.p2align	2, 0x0
$cppxdata$_ZN52_$LT$T$u20$as$u20$alloc..slice..hack..ConvertVec$GT$6to_vec17ha107d0bb5072e347E:
	.long	429065506
	.long	1
	.long	($stateUnwindMap$_ZN52_$LT$T$u20$as$u20$alloc..slice..hack..ConvertVec$GT$6to_vec17ha107d0bb5072e347E)@IMGREL
	.long	0
	.long	0
	.long	3
	.long	($ip2state$_ZN52_$LT$T$u20$as$u20$alloc..slice..hack..ConvertVec$GT$6to_vec17ha107d0bb5072e347E)@IMGREL
	.long	104
	.long	0
	.long	1
$stateUnwindMap$_ZN52_$LT$T$u20$as$u20$alloc..slice..hack..ConvertVec$GT$6to_vec17ha107d0bb5072e347E:
	.long	-1
	.long	"?dtor$1@?0?_ZN52_$LT$T$u20$as$u20$alloc..slice..hack..ConvertVec$GT$6to_vec17ha107d0bb5072e347E@4HA"@IMGREL
$ip2state$_ZN52_$LT$T$u20$as$u20$alloc..slice..hack..ConvertVec$GT$6to_vec17ha107d0bb5072e347E:
	.long	.Lfunc_begin14@IMGREL
	.long	-1
	.long	.Ltmp40@IMGREL+1
	.long	0
	.long	.Ltmp41@IMGREL+1
	.long	-1
	.section	.text,"xr",one_only,_ZN52_$LT$T$u20$as$u20$alloc..slice..hack..ConvertVec$GT$6to_vec17ha107d0bb5072e347E

	.def	_ZN54_$LT$$LP$$RP$$u20$as$u20$std..process..Termination$GT$6report17h759cbc3fa389d586E;
	.scl	3;
	.type	32;
	.endef
	.section	.text,"xr",one_only,_ZN54_$LT$$LP$$RP$$u20$as$u20$std..process..Termination$GT$6report17h759cbc3fa389d586E
	.p2align	4, 0x90
_ZN54_$LT$$LP$$RP$$u20$as$u20$std..process..Termination$GT$6report17h759cbc3fa389d586E:
	xorl	%eax, %eax
	retq

	.def	_ZN55_$LT$$RF$str$u20$as$u20$core..str..pattern..Pattern$GT$13into_searcher17h40f6f9aa9db9c00eE;
	.scl	3;
	.type	32;
	.endef
	.section	.text,"xr",one_only,_ZN55_$LT$$RF$str$u20$as$u20$core..str..pattern..Pattern$GT$13into_searcher17h40f6f9aa9db9c00eE
	.p2align	4, 0x90
_ZN55_$LT$$RF$str$u20$as$u20$core..str..pattern..Pattern$GT$13into_searcher17h40f6f9aa9db9c00eE:
.seh_proc _ZN55_$LT$$RF$str$u20$as$u20$core..str..pattern..Pattern$GT$13into_searcher17h40f6f9aa9db9c00eE
	subq	$56, %rsp
	.seh_stackalloc 56
	.seh_endprologue
	movq	%r9, 40(%rsp)
	movq	%r8, %rax
	movq	%rdx, %r9
	movq	40(%rsp), %rdx
	movq	%rcx, %r8
	movq	%r8, 48(%rsp)
	movq	96(%rsp), %r8
	movq	%rax, 32(%rsp)
	callq	_ZN4core3str7pattern11StrSearcher3new17h0edcd308f8bc0789E
	movq	48(%rsp), %rax
	addq	$56, %rsp
	retq
	.seh_endproc

	.def	_ZN55_$LT$T$u20$as$u20$core..option..SpecOptionPartialEq$GT$2eq17hf38d6f5a31ffd21cE;
	.scl	3;
	.type	32;
	.endef
	.section	.text,"xr",one_only,_ZN55_$LT$T$u20$as$u20$core..option..SpecOptionPartialEq$GT$2eq17hf38d6f5a31ffd21cE
	.p2align	4, 0x90
_ZN55_$LT$T$u20$as$u20$core..option..SpecOptionPartialEq$GT$2eq17hf38d6f5a31ffd21cE:
.seh_proc _ZN55_$LT$T$u20$as$u20$core..option..SpecOptionPartialEq$GT$2eq17hf38d6f5a31ffd21cE
	subq	$72, %rsp
	.seh_stackalloc 72
	.seh_endprologue
	movq	%rcx, 56(%rsp)
	movq	%rdx, 64(%rsp)
	movq	56(%rsp), %rax
	movq	(%rax), %rax
	movq	%rax, 40(%rsp)
	testq	%rax, %rax
	je	.LBB78_2
	jmp	.LBB78_7
.LBB78_7:
	movq	40(%rsp), %rax
	subq	$1, %rax
	je	.LBB78_3
	jmp	.LBB78_1
.LBB78_1:
	movb	$0, 55(%rsp)
	jmp	.LBB78_5
.LBB78_2:
	movq	64(%rsp), %rax
	cmpq	$0, (%rax)
	je	.LBB78_6
	jmp	.LBB78_1
.LBB78_3:
	movq	64(%rsp), %rax
	cmpq	$1, (%rax)
	jne	.LBB78_1
	movq	56(%rsp), %rcx
	addq	$8, %rcx
	movq	64(%rsp), %rdx
	addq	$8, %rdx
	callq	_ZN4core3cmp5impls56_$LT$impl$u20$core..cmp..PartialEq$u20$for$u20$usize$GT$2eq17h378599ae5224831cE
	andb	$1, %al
	movb	%al, 55(%rsp)
.LBB78_5:
	movb	55(%rsp), %al
	andb	$1, %al
	movzbl	%al, %eax
	addq	$72, %rsp
	retq
.LBB78_6:
	movb	$1, 55(%rsp)
	jmp	.LBB78_5
	.seh_endproc

	.def	_ZN5alloc3fmt6format17h2cdb04e48c6f7723E;
	.scl	3;
	.type	32;
	.endef
	.section	.text,"xr",one_only,_ZN5alloc3fmt6format17h2cdb04e48c6f7723E
	.p2align	4, 0x90
_ZN5alloc3fmt6format17h2cdb04e48c6f7723E:
.seh_proc _ZN5alloc3fmt6format17h2cdb04e48c6f7723E
	subq	$72, %rsp
	.seh_stackalloc 72
	.seh_endprologue
	movq	%rdx, 40(%rsp)
	movq	%rcx, %rax
	movq	40(%rsp), %rcx
	movq	%rax, 32(%rsp)
	movq	%rax, 56(%rsp)
	callq	_ZN4core3fmt9Arguments6as_str17h23635852bad42a5eE
	movq	32(%rsp), %rcx
	movq	%rax, %r8
	movq	40(%rsp), %rax
	movq	%r8, 48(%rsp)
	movq	%rdx, %r8
	movq	48(%rsp), %rdx
	movq	%rax, 64(%rsp)
	movq	64(%rsp), %r9
	callq	_ZN4core6option15Option$LT$T$GT$11map_or_else17h7f5ec26e7c82e5ddE
	movq	56(%rsp), %rax
	addq	$72, %rsp
	retq
	.seh_endproc

	.def	_ZN5alloc3fmt6format28_$u7b$$u7b$closure$u7d$$u7d$17hd9fb679593fbc382E;
	.scl	3;
	.type	32;
	.endef
	.section	.text,"xr",one_only,_ZN5alloc3fmt6format28_$u7b$$u7b$closure$u7d$$u7d$17hd9fb679593fbc382E
	.p2align	4, 0x90
_ZN5alloc3fmt6format28_$u7b$$u7b$closure$u7d$$u7d$17hd9fb679593fbc382E:
.seh_proc _ZN5alloc3fmt6format28_$u7b$$u7b$closure$u7d$$u7d$17hd9fb679593fbc382E
	subq	$104, %rsp
	.seh_stackalloc 104
	.seh_endprologue
	movq	%rcx, 32(%rsp)
	movq	%rcx, 40(%rsp)
	movq	%rdx, 48(%rsp)
	movq	48(%rsp), %rdx
	leaq	56(%rsp), %rcx
	movl	$48, %r8d
	callq	memcpy
	movq	32(%rsp), %rcx
	leaq	56(%rsp), %rdx
	callq	_ZN5alloc3fmt6format12format_inner17hbcacbeca54e6aa2cE
	movq	40(%rsp), %rax
	addq	$104, %rsp
	retq
	.seh_endproc

	.def	_ZN5alloc3str56_$LT$impl$u20$alloc..borrow..ToOwned$u20$for$u20$str$GT$8to_owned17h5d1cc46baca3f751E;
	.scl	3;
	.type	32;
	.endef
	.section	.text,"xr",one_only,_ZN5alloc3str56_$LT$impl$u20$alloc..borrow..ToOwned$u20$for$u20$str$GT$8to_owned17h5d1cc46baca3f751E
	.p2align	4, 0x90
_ZN5alloc3str56_$LT$impl$u20$alloc..borrow..ToOwned$u20$for$u20$str$GT$8to_owned17h5d1cc46baca3f751E:
.seh_proc _ZN5alloc3str56_$LT$impl$u20$alloc..borrow..ToOwned$u20$for$u20$str$GT$8to_owned17h5d1cc46baca3f751E
	subq	$72, %rsp
	.seh_stackalloc 72
	.seh_endprologue
	movq	%rcx, 32(%rsp)
	movq	%rcx, 40(%rsp)
	leaq	48(%rsp), %rcx
	callq	_ZN52_$LT$T$u20$as$u20$alloc..slice..hack..ConvertVec$GT$6to_vec17ha107d0bb5072e347E
	movq	32(%rsp), %rcx
	movq	40(%rsp), %rax
	movq	48(%rsp), %rdx
	movq	%rdx, (%rcx)
	movq	56(%rsp), %rdx
	movq	%rdx, 8(%rcx)
	movq	64(%rsp), %rdx
	movq	%rdx, 16(%rcx)
	addq	$72, %rsp
	retq
	.seh_endproc

	.def	_ZN5alloc3vec16Vec$LT$T$C$A$GT$16extend_desugared17h33db5097fa3f7f0fE;
	.scl	3;
	.type	32;
	.endef
	.section	.text,"xr",one_only,_ZN5alloc3vec16Vec$LT$T$C$A$GT$16extend_desugared17h33db5097fa3f7f0fE
	.p2align	4, 0x90
_ZN5alloc3vec16Vec$LT$T$C$A$GT$16extend_desugared17h33db5097fa3f7f0fE:
.Lfunc_begin15:
.seh_proc _ZN5alloc3vec16Vec$LT$T$C$A$GT$16extend_desugared17h33db5097fa3f7f0fE
	.seh_handler __CxxFrameHandler3, @unwind, @except
	pushq	%rbp
	.seh_pushreg %rbp
	subq	$176, %rsp
	.seh_stackalloc 176
	leaq	128(%rsp), %rbp
	.seh_setframe %rbp, 128
	.seh_endprologue
	movq	$-2, 40(%rbp)
	movq	%rdx, -88(%rbp)
	movq	%rcx, -80(%rbp)
.LBB82_1:
.Ltmp42:
	movq	-88(%rbp), %rdx
	leaq	-72(%rbp), %rcx
	callq	_ZN73_$LT$std..env..Args$u20$as$u20$core..iter..traits..iterator..Iterator$GT$4next17h67b02f6776aed8f2E
.Ltmp43:
	jmp	.LBB82_3
.LBB82_3:
	movq	-72(%rbp), %rdx
	movl	$1, %eax
	xorl	%ecx, %ecx
	cmpq	$0, %rdx
	cmoveq	%rcx, %rax
	cmpq	$1, %rax
	jne	.LBB82_5
	movq	-80(%rbp), %rcx
	movq	-72(%rbp), %rax
	movq	%rax, -48(%rbp)
	movq	-64(%rbp), %rax
	movq	%rax, -40(%rbp)
	movq	-56(%rbp), %rax
	movq	%rax, -32(%rbp)
	movq	16(%rcx), %rax
	movq	%rax, -96(%rbp)
	movq	8(%rcx), %rcx
	movq	%rcx, -24(%rbp)
	cmpq	-24(%rbp), %rax
	je	.LBB82_8
	jmp	.LBB82_7
.LBB82_5:
.Ltmp44:
	leaq	-72(%rbp), %rcx
	callq	_ZN4core3ptr70drop_in_place$LT$core..option..Option$LT$alloc..string..String$GT$$GT$17h6860faea33d85067E
.Ltmp45:
	jmp	.LBB82_6
.LBB82_6:
	movq	-88(%rbp), %rcx
	callq	_ZN4core3ptr35drop_in_place$LT$std..env..Args$GT$17h6923adcb80febfdcE
	nop
	addq	$176, %rsp
	popq	%rbp
	retq
.LBB82_7:
	movq	-80(%rbp), %rax
	movq	-96(%rbp), %rcx
	imulq	$24, %rcx, %rdx
	addq	(%rax), %rdx
	movq	-48(%rbp), %r8
	movq	%r8, 8(%rbp)
	movq	-40(%rbp), %r8
	movq	%r8, 16(%rbp)
	movq	-32(%rbp), %r8
	movq	%r8, 24(%rbp)
	movq	8(%rbp), %r8
	movq	%r8, (%rdx)
	movq	16(%rbp), %r8
	movq	%r8, 8(%rdx)
	movq	24(%rbp), %r8
	movq	%r8, 16(%rdx)
	addq	$1, %rcx
	movq	%rcx, 16(%rax)
	jmp	.LBB82_1
.LBB82_8:
.Ltmp46:
	movq	-88(%rbp), %rdx
	leaq	-16(%rbp), %rcx
	callq	_ZN73_$LT$std..env..Args$u20$as$u20$core..iter..traits..iterator..Iterator$GT$9size_hint17h4ed6d2bb86595f1fE
.Ltmp47:
	jmp	.LBB82_10
.LBB82_10:
	movq	-80(%rbp), %rcx
	movq	-16(%rbp), %rax
	incq	%rax
	movq	$-1, %rdx
	cmoveq	%rdx, %rax
	movq	%rax, 32(%rbp)
	movq	32(%rbp), %rdx
.Ltmp48:
	callq	_ZN5alloc3vec16Vec$LT$T$C$A$GT$7reserve17he814a72c7db502f3E
.Ltmp49:
	jmp	.LBB82_11
.LBB82_11:
	jmp	.LBB82_7
	.seh_handlerdata
	.long	($cppxdata$_ZN5alloc3vec16Vec$LT$T$C$A$GT$16extend_desugared17h33db5097fa3f7f0fE)@IMGREL
	.section	.text,"xr",one_only,_ZN5alloc3vec16Vec$LT$T$C$A$GT$16extend_desugared17h33db5097fa3f7f0fE
	.seh_endproc
	.def	"?dtor$2@?0?_ZN5alloc3vec16Vec$LT$T$C$A$GT$16extend_desugared17h33db5097fa3f7f0fE@4HA";
	.scl	3;
	.type	32;
	.endef
	.p2align	4, 0x90
"?dtor$2@?0?_ZN5alloc3vec16Vec$LT$T$C$A$GT$16extend_desugared17h33db5097fa3f7f0fE@4HA":
.seh_proc "?dtor$2@?0?_ZN5alloc3vec16Vec$LT$T$C$A$GT$16extend_desugared17h33db5097fa3f7f0fE@4HA"
.LBB82_2:
	movq	%rdx, 16(%rsp)
	pushq	%rbp
	.seh_pushreg %rbp
	subq	$32, %rsp
	.seh_stackalloc 32
	leaq	128(%rdx), %rbp
	.seh_endprologue
	movq	-88(%rbp), %rcx
	callq	_ZN4core3ptr35drop_in_place$LT$std..env..Args$GT$17h6923adcb80febfdcE
	nop
	addq	$32, %rsp
	popq	%rbp
	retq
	.seh_handlerdata
	.section	.text,"xr",one_only,_ZN5alloc3vec16Vec$LT$T$C$A$GT$16extend_desugared17h33db5097fa3f7f0fE
	.seh_endproc
	.def	"?dtor$9@?0?_ZN5alloc3vec16Vec$LT$T$C$A$GT$16extend_desugared17h33db5097fa3f7f0fE@4HA";
	.scl	3;
	.type	32;
	.endef
	.p2align	4, 0x90
"?dtor$9@?0?_ZN5alloc3vec16Vec$LT$T$C$A$GT$16extend_desugared17h33db5097fa3f7f0fE@4HA":
.seh_proc "?dtor$9@?0?_ZN5alloc3vec16Vec$LT$T$C$A$GT$16extend_desugared17h33db5097fa3f7f0fE@4HA"
.LBB82_9:
	movq	%rdx, 16(%rsp)
	pushq	%rbp
	.seh_pushreg %rbp
	subq	$32, %rsp
	.seh_stackalloc 32
	leaq	128(%rdx), %rbp
	.seh_endprologue
	leaq	-48(%rbp), %rcx
	callq	_ZN4core3ptr42drop_in_place$LT$alloc..string..String$GT$17h8b93a42a264a5bd1E
	nop
	addq	$32, %rsp
	popq	%rbp
	retq
.Lfunc_end15:
	.seh_handlerdata
	.section	.text,"xr",one_only,_ZN5alloc3vec16Vec$LT$T$C$A$GT$16extend_desugared17h33db5097fa3f7f0fE
	.seh_endproc
	.section	.xdata,"dr",associative,_ZN5alloc3vec16Vec$LT$T$C$A$GT$16extend_desugared17h33db5097fa3f7f0fE
	.p2align	2, 0x0
$cppxdata$_ZN5alloc3vec16Vec$LT$T$C$A$GT$16extend_desugared17h33db5097fa3f7f0fE:
	.long	429065506
	.long	2
	.long	($stateUnwindMap$_ZN5alloc3vec16Vec$LT$T$C$A$GT$16extend_desugared17h33db5097fa3f7f0fE)@IMGREL
	.long	0
	.long	0
	.long	5
	.long	($ip2state$_ZN5alloc3vec16Vec$LT$T$C$A$GT$16extend_desugared17h33db5097fa3f7f0fE)@IMGREL
	.long	168
	.long	0
	.long	1
$stateUnwindMap$_ZN5alloc3vec16Vec$LT$T$C$A$GT$16extend_desugared17h33db5097fa3f7f0fE:
	.long	-1
	.long	"?dtor$2@?0?_ZN5alloc3vec16Vec$LT$T$C$A$GT$16extend_desugared17h33db5097fa3f7f0fE@4HA"@IMGREL
	.long	0
	.long	"?dtor$9@?0?_ZN5alloc3vec16Vec$LT$T$C$A$GT$16extend_desugared17h33db5097fa3f7f0fE@4HA"@IMGREL
$ip2state$_ZN5alloc3vec16Vec$LT$T$C$A$GT$16extend_desugared17h33db5097fa3f7f0fE:
	.long	.Lfunc_begin15@IMGREL
	.long	-1
	.long	.Ltmp42@IMGREL+1
	.long	0
	.long	.Ltmp45@IMGREL+1
	.long	-1
	.long	.Ltmp46@IMGREL+1
	.long	1
	.long	.Ltmp49@IMGREL+1
	.long	-1
	.section	.text,"xr",one_only,_ZN5alloc3vec16Vec$LT$T$C$A$GT$16extend_desugared17h33db5097fa3f7f0fE

	.def	_ZN5alloc3vec16Vec$LT$T$C$A$GT$7reserve17he814a72c7db502f3E;
	.scl	3;
	.type	32;
	.endef
	.section	.text,"xr",one_only,_ZN5alloc3vec16Vec$LT$T$C$A$GT$7reserve17he814a72c7db502f3E
	.p2align	4, 0x90
_ZN5alloc3vec16Vec$LT$T$C$A$GT$7reserve17he814a72c7db502f3E:
.seh_proc _ZN5alloc3vec16Vec$LT$T$C$A$GT$7reserve17he814a72c7db502f3E
	subq	$72, %rsp
	.seh_stackalloc 72
	.seh_endprologue
	movq	%rdx, 40(%rsp)
	movq	%rcx, 48(%rsp)
	movq	16(%rcx), %rax
	movq	%rax, 56(%rsp)
	xorl	%eax, %eax
	testb	$1, %al
	jne	.LBB83_2
	movq	48(%rsp), %rax
	movq	8(%rax), %rax
	movq	%rax, 64(%rsp)
	jmp	.LBB83_3
.LBB83_2:
	movq	$-1, 64(%rsp)
.LBB83_3:
	movq	40(%rsp), %rax
	movq	56(%rsp), %rdx
	movq	64(%rsp), %rcx
	subq	%rdx, %rcx
	cmpq	%rcx, %rax
	ja	.LBB83_5
.LBB83_4:
	addq	$72, %rsp
	retq
.LBB83_5:
	movq	40(%rsp), %r8
	movq	56(%rsp), %rdx
	movq	48(%rsp), %rcx
	callq	_ZN5alloc7raw_vec19RawVec$LT$T$C$A$GT$7reserve21do_reserve_and_handle17h83f1e68969fda873E
	jmp	.LBB83_4
	.seh_endproc

	.def	_ZN5alloc3vec9into_iter21IntoIter$LT$T$C$A$GT$16as_raw_mut_slice17h826c4917e8c24f43E;
	.scl	3;
	.type	32;
	.endef
	.section	.text,"xr",one_only,_ZN5alloc3vec9into_iter21IntoIter$LT$T$C$A$GT$16as_raw_mut_slice17h826c4917e8c24f43E
	.p2align	4, 0x90
_ZN5alloc3vec9into_iter21IntoIter$LT$T$C$A$GT$16as_raw_mut_slice17h826c4917e8c24f43E:
.seh_proc _ZN5alloc3vec9into_iter21IntoIter$LT$T$C$A$GT$16as_raw_mut_slice17h826c4917e8c24f43E
	subq	$88, %rsp
	.seh_stackalloc 88
	.seh_endprologue
	movq	%rcx, 48(%rsp)
	movq	48(%rsp), %rcx
	movq	16(%rcx), %rax
	movq	%rax, 40(%rsp)
	callq	_ZN4core4iter6traits10exact_size17ExactSizeIterator3len17hfae936d9d655b7bdE
	movq	40(%rsp), %rcx
	movq	%rcx, 72(%rsp)
	movq	%rax, 80(%rsp)
	movq	72(%rsp), %rcx
	movq	80(%rsp), %rax
	movq	%rcx, 56(%rsp)
	movq	%rax, 64(%rsp)
	movq	56(%rsp), %rax
	movq	64(%rsp), %rdx
	addq	$88, %rsp
	retq
	.seh_endproc

	.def	_ZN5alloc5alloc6Global10alloc_impl17h7fdc0bde8e71743eE;
	.scl	3;
	.type	32;
	.endef
	.section	.text,"xr",one_only,_ZN5alloc5alloc6Global10alloc_impl17h7fdc0bde8e71743eE
	.p2align	4, 0x90
_ZN5alloc5alloc6Global10alloc_impl17h7fdc0bde8e71743eE:
.seh_proc _ZN5alloc5alloc6Global10alloc_impl17h7fdc0bde8e71743eE
	subq	$312, %rsp
	.seh_stackalloc 312
	.seh_endprologue
	movb	%r9b, 55(%rsp)
	movq	%rdx, 64(%rsp)
	movq	%r8, 72(%rsp)
	movq	72(%rsp), %rax
	movq	%rax, 56(%rsp)
	cmpq	$0, %rax
	jne	.LBB85_2
	movq	64(%rsp), %rax
	movq	%rax, 200(%rsp)
	movq	200(%rsp), %rax
	movq	%rax, 112(%rsp)
	movq	112(%rsp), %rax
	movq	%rax, 224(%rsp)
	movq	$0, 232(%rsp)
	movq	224(%rsp), %rcx
	movq	232(%rsp), %rax
	movq	%rcx, 208(%rsp)
	movq	%rax, 216(%rsp)
	movq	208(%rsp), %rcx
	movq	216(%rsp), %rax
	movq	%rcx, 96(%rsp)
	movq	%rax, 104(%rsp)
	movq	96(%rsp), %rcx
	movq	104(%rsp), %rax
	movq	%rcx, 80(%rsp)
	movq	%rax, 88(%rsp)
	jmp	.LBB85_17
.LBB85_2:
	movb	55(%rsp), %al
	testb	$1, %al
	jne	.LBB85_4
	jmp	.LBB85_3
.LBB85_3:
	movq	64(%rsp), %rcx
	movq	72(%rsp), %rax
	movq	%rcx, 144(%rsp)
	movq	%rax, 152(%rsp)
	movb	__rust_no_alloc_shim_is_unstable(%rip), %al
	movb	%al, 311(%rsp)
	movq	152(%rsp), %rcx
	movq	144(%rsp), %rax
	movq	%rax, 248(%rsp)
	movq	248(%rsp), %rdx
	callq	__rust_alloc
	movq	%rax, 120(%rsp)
	jmp	.LBB85_5
.LBB85_4:
	movq	64(%rsp), %rcx
	movq	72(%rsp), %rax
	movq	%rcx, 128(%rsp)
	movq	%rax, 136(%rsp)
	movq	136(%rsp), %rcx
	movq	128(%rsp), %rax
	movq	%rax, 240(%rsp)
	movq	240(%rsp), %rdx
	callq	__rust_alloc_zeroed
	movq	%rax, 120(%rsp)
.LBB85_5:
	movq	120(%rsp), %rax
	movq	%rax, 40(%rsp)
	movq	%rax, 264(%rsp)
	movq	264(%rsp), %rax
	cmpq	$0, %rax
	sete	%al
	xorb	$-1, %al
	testb	$1, %al
	jne	.LBB85_7
	movq	$0, 176(%rsp)
	jmp	.LBB85_8
.LBB85_7:
	movq	40(%rsp), %rax
	movq	%rax, 256(%rsp)
	movq	256(%rsp), %rax
	movq	%rax, 176(%rsp)
.LBB85_8:
	movq	176(%rsp), %rdx
	movl	$1, %eax
	xorl	%ecx, %ecx
	cmpq	$0, %rdx
	cmoveq	%rcx, %rax
	cmpq	$0, %rax
	jne	.LBB85_10
	movq	$0, 168(%rsp)
	jmp	.LBB85_11
.LBB85_10:
	movq	176(%rsp), %rax
	movq	%rax, 168(%rsp)
.LBB85_11:
	movq	168(%rsp), %rdx
	xorl	%eax, %eax
	movl	$1, %ecx
	cmpq	$0, %rdx
	cmoveq	%rcx, %rax
	cmpq	$0, %rax
	jne	.LBB85_13
	movq	168(%rsp), %rax
	movq	%rax, 160(%rsp)
	jmp	.LBB85_14
.LBB85_13:
	movq	$0, 160(%rsp)
.LBB85_14:
	movq	160(%rsp), %rdx
	xorl	%eax, %eax
	movl	$1, %ecx
	cmpq	$0, %rdx
	cmoveq	%rcx, %rax
	cmpq	$0, %rax
	jne	.LBB85_16
	movq	56(%rsp), %rax
	movq	160(%rsp), %rcx
	movq	%rcx, 288(%rsp)
	movq	%rax, 296(%rsp)
	movq	288(%rsp), %rcx
	movq	296(%rsp), %rax
	movq	%rcx, 272(%rsp)
	movq	%rax, 280(%rsp)
	movq	272(%rsp), %rcx
	movq	280(%rsp), %rax
	movq	%rcx, 184(%rsp)
	movq	%rax, 192(%rsp)
	movq	184(%rsp), %rcx
	movq	192(%rsp), %rax
	movq	%rcx, 80(%rsp)
	movq	%rax, 88(%rsp)
	jmp	.LBB85_17
.LBB85_16:
	movq	$0, 80(%rsp)
.LBB85_17:
	movq	80(%rsp), %rax
	movq	88(%rsp), %rdx
	addq	$312, %rsp
	retq
	.seh_endproc

	.def	_ZN5alloc5alloc6Global9grow_impl17hdf4242133c41d3f3E;
	.scl	3;
	.type	32;
	.endef
	.section	.text,"xr",one_only,_ZN5alloc5alloc6Global9grow_impl17hdf4242133c41d3f3E
	.p2align	4, 0x90
_ZN5alloc5alloc6Global9grow_impl17hdf4242133c41d3f3E:
.seh_proc _ZN5alloc5alloc6Global9grow_impl17hdf4242133c41d3f3E
	subq	$328, %rsp
	.seh_stackalloc 328
	.seh_endprologue
	movq	%rdx, 80(%rsp)
	movq	%rcx, 88(%rsp)
	movb	384(%rsp), %al
	movb	%al, 103(%rsp)
	movq	376(%rsp), %rax
	movq	368(%rsp), %rcx
	movq	%r8, 112(%rsp)
	movq	%r9, 120(%rsp)
	movq	%rcx, 128(%rsp)
	movq	%rax, 136(%rsp)
	movq	120(%rsp), %rax
	movq	%rax, 104(%rsp)
	cmpq	$0, %rax
	jne	.LBB86_2
	movq	88(%rsp), %rcx
	movb	103(%rsp), %r9b
	movq	128(%rsp), %rdx
	movq	136(%rsp), %r8
	andb	$1, %r9b
	callq	_ZN5alloc5alloc6Global10alloc_impl17h7fdc0bde8e71743eE
	movq	%rdx, 152(%rsp)
	movq	%rax, 144(%rsp)
	jmp	.LBB86_19
.LBB86_2:
	movq	112(%rsp), %rax
	movq	%rax, 248(%rsp)
	movq	248(%rsp), %rax
	movq	128(%rsp), %rcx
	movq	%rcx, 256(%rsp)
	movq	256(%rsp), %rcx
	cmpq	%rcx, %rax
	je	.LBB86_4
	movq	88(%rsp), %rcx
	movb	103(%rsp), %r9b
	movq	128(%rsp), %rdx
	movq	136(%rsp), %r8
	andb	$1, %r9b
	callq	_ZN5alloc5alloc6Global10alloc_impl17h7fdc0bde8e71743eE
	movq	%rdx, 240(%rsp)
	movq	%rax, 232(%rsp)
	movq	232(%rsp), %rdx
	xorl	%eax, %eax
	movl	$1, %ecx
	cmpq	$0, %rdx
	cmoveq	%rcx, %rax
	cmpq	$0, %rax
	je	.LBB86_20
	jmp	.LBB86_21
.LBB86_4:
	movq	80(%rsp), %rcx
	movq	136(%rsp), %r9
	movq	%r9, 64(%rsp)
	movq	112(%rsp), %rdx
	movq	120(%rsp), %rax
	movq	%rdx, 160(%rsp)
	movq	%rax, 168(%rsp)
	movq	168(%rsp), %rdx
	movq	160(%rsp), %rax
	movq	%rax, 264(%rsp)
	movq	264(%rsp), %r8
	callq	__rust_realloc
	movq	%rax, 72(%rsp)
	movq	%rax, 280(%rsp)
	movq	280(%rsp), %rax
	cmpq	$0, %rax
	sete	%al
	xorb	$-1, %al
	testb	$1, %al
	jne	.LBB86_6
	movq	$0, 192(%rsp)
	jmp	.LBB86_7
.LBB86_6:
	movq	72(%rsp), %rax
	movq	%rax, 272(%rsp)
	movq	272(%rsp), %rax
	movq	%rax, 192(%rsp)
.LBB86_7:
	movq	192(%rsp), %rdx
	movl	$1, %eax
	xorl	%ecx, %ecx
	cmpq	$0, %rdx
	cmoveq	%rcx, %rax
	cmpq	$0, %rax
	jne	.LBB86_9
	movq	$0, 184(%rsp)
	jmp	.LBB86_10
.LBB86_9:
	movq	192(%rsp), %rax
	movq	%rax, 184(%rsp)
.LBB86_10:
	movq	184(%rsp), %rdx
	xorl	%eax, %eax
	movl	$1, %ecx
	cmpq	$0, %rdx
	cmoveq	%rcx, %rax
	cmpq	$0, %rax
	jne	.LBB86_12
	movq	184(%rsp), %rax
	movq	%rax, 176(%rsp)
	jmp	.LBB86_13
.LBB86_12:
	movq	$0, 176(%rsp)
.LBB86_13:
	movq	176(%rsp), %rdx
	xorl	%eax, %eax
	movl	$1, %ecx
	cmpq	$0, %rdx
	cmoveq	%rcx, %rax
	cmpq	$0, %rax
	jne	.LBB86_15
	movb	103(%rsp), %al
	movq	176(%rsp), %rcx
	movq	%rcx, 56(%rsp)
	testb	$1, %al
	jne	.LBB86_18
	jmp	.LBB86_17
.LBB86_15:
	movq	$0, 144(%rsp)
.LBB86_16:
	jmp	.LBB86_25
.LBB86_17:
	movq	64(%rsp), %rax
	movq	56(%rsp), %rcx
	movq	%rcx, 304(%rsp)
	movq	%rax, 312(%rsp)
	movq	304(%rsp), %rcx
	movq	312(%rsp), %rax
	movq	%rcx, 288(%rsp)
	movq	%rax, 296(%rsp)
	movq	288(%rsp), %rcx
	movq	296(%rsp), %rax
	movq	%rcx, 200(%rsp)
	movq	%rax, 208(%rsp)
	movq	200(%rsp), %rcx
	movq	208(%rsp), %rax
	movq	%rcx, 144(%rsp)
	movq	%rax, 152(%rsp)
	jmp	.LBB86_19
.LBB86_18:
	movq	104(%rsp), %rax
	movq	64(%rsp), %r8
	movq	72(%rsp), %rcx
	addq	%rax, %rcx
	subq	%rax, %r8
	shlq	$0, %r8
	xorl	%edx, %edx
	callq	memset
	jmp	.LBB86_17
.LBB86_19:
	jmp	.LBB86_25
.LBB86_20:
	movq	232(%rsp), %rcx
	movq	240(%rsp), %rax
	movq	%rcx, 216(%rsp)
	movq	%rax, 224(%rsp)
	jmp	.LBB86_22
.LBB86_21:
	movq	$0, 216(%rsp)
.LBB86_22:
	movq	216(%rsp), %rdx
	xorl	%eax, %eax
	movl	$1, %ecx
	cmpq	$0, %rdx
	cmoveq	%rcx, %rax
	cmpq	$0, %rax
	jne	.LBB86_24
	movq	80(%rsp), %rdx
	movq	104(%rsp), %r8
	movq	216(%rsp), %rax
	movq	%rax, 40(%rsp)
	movq	224(%rsp), %rcx
	movq	%rcx, 48(%rsp)
	movq	%rax, 320(%rsp)
	movq	320(%rsp), %rcx
	shlq	$0, %r8
	callq	memcpy
	movq	88(%rsp), %rcx
	movq	80(%rsp), %rdx
	movq	112(%rsp), %r8
	movq	120(%rsp), %r9
	callq	_ZN63_$LT$alloc..alloc..Global$u20$as$u20$core..alloc..Allocator$GT$10deallocate17h3abe40701abeea38E
	movq	40(%rsp), %rcx
	movq	48(%rsp), %rax
	movq	%rcx, 144(%rsp)
	movq	%rax, 152(%rsp)
	jmp	.LBB86_19
.LBB86_24:
	movq	$0, 144(%rsp)
	jmp	.LBB86_16
.LBB86_25:
	movq	144(%rsp), %rax
	movq	152(%rsp), %rdx
	addq	$328, %rsp
	retq
	.seh_endproc

	.def	_ZN5alloc7raw_vec11finish_grow17h60092d5484246624E;
	.scl	3;
	.type	32;
	.endef
	.section	.text,"xr",one_only,_ZN5alloc7raw_vec11finish_grow17h60092d5484246624E
	.p2align	4, 0x90
_ZN5alloc7raw_vec11finish_grow17h60092d5484246624E:
.seh_proc _ZN5alloc7raw_vec11finish_grow17h60092d5484246624E
	subq	$312, %rsp
	.seh_stackalloc 312
	.seh_endprologue
	movq	%r9, 48(%rsp)
	movq	%rcx, 56(%rsp)
	movq	%rcx, 64(%rsp)
	movq	352(%rsp), %rax
	movq	%rax, 72(%rsp)
	leaq	120(%rsp), %rcx
	callq	_ZN4core6result19Result$LT$T$C$E$GT$7map_err17hf55ce1235bf6f368E
	cmpq	$0, 120(%rsp)
	jne	.LBB87_2
	movq	128(%rsp), %rcx
	movq	136(%rsp), %rax
	movq	%rcx, 104(%rsp)
	movq	%rax, 112(%rsp)
	movq	$0, 96(%rsp)
	jmp	.LBB87_3
.LBB87_2:
	movq	128(%rsp), %rcx
	movq	136(%rsp), %rax
	movq	%rcx, 248(%rsp)
	movq	%rax, 256(%rsp)
	movq	248(%rsp), %rcx
	movq	256(%rsp), %rax
	movq	%rcx, 104(%rsp)
	movq	%rax, 112(%rsp)
	movq	$1, 96(%rsp)
.LBB87_3:
	cmpq	$0, 96(%rsp)
	jne	.LBB87_5
	movq	104(%rsp), %rcx
	movq	112(%rsp), %rax
	movq	%rcx, 80(%rsp)
	movq	%rax, 88(%rsp)
	movabsq	$-9223372036854775807, %rax
	movq	%rax, 176(%rsp)
	movabsq	$-9223372036854775807, %rdx
	movl	$1, %eax
	xorl	%ecx, %ecx
	cmpq	%rdx, 176(%rsp)
	cmoveq	%rcx, %rax
	cmpq	$0, %rax
	je	.LBB87_7
	jmp	.LBB87_8
.LBB87_5:
	movq	56(%rsp), %rax
	movq	104(%rsp), %rdx
	movq	112(%rsp), %rcx
	movq	%rdx, 144(%rsp)
	movq	%rcx, 152(%rsp)
	movq	144(%rsp), %rdx
	movq	152(%rsp), %rcx
	movq	%rdx, 264(%rsp)
	movq	%rcx, 272(%rsp)
	movq	264(%rsp), %rdx
	movq	272(%rsp), %rcx
	movq	%rdx, 8(%rax)
	movq	%rcx, 16(%rax)
	movq	$1, (%rax)
.LBB87_6:
	jmp	.LBB87_12
.LBB87_7:
	movabsq	$-9223372036854775807, %rax
	movq	%rax, 160(%rsp)
	jmp	.LBB87_9
.LBB87_8:
	movq	176(%rsp), %rcx
	movq	184(%rsp), %rax
	movq	%rcx, 280(%rsp)
	movq	%rax, 288(%rsp)
	movq	280(%rsp), %rcx
	movq	288(%rsp), %rax
	movq	%rcx, 160(%rsp)
	movq	%rax, 168(%rsp)
.LBB87_9:
	movabsq	$-9223372036854775807, %rdx
	movl	$1, %eax
	xorl	%ecx, %ecx
	cmpq	%rdx, 160(%rsp)
	cmoveq	%rcx, %rax
	cmpq	$0, %rax
	jne	.LBB87_11
	movq	48(%rsp), %rdx
	movl	$1, %eax
	xorl	%ecx, %ecx
	cmpq	$0, 8(%rdx)
	cmoveq	%rcx, %rax
	cmpq	$1, %rax
	je	.LBB87_13
	jmp	.LBB87_14
.LBB87_11:
	movq	56(%rsp), %rax
	movq	160(%rsp), %rdx
	movq	168(%rsp), %rcx
	movq	%rdx, 192(%rsp)
	movq	%rcx, 200(%rsp)
	movq	192(%rsp), %rdx
	movq	200(%rsp), %rcx
	movq	%rdx, 8(%rax)
	movq	%rcx, 16(%rax)
	movq	$1, (%rax)
	jmp	.LBB87_6
.LBB87_12:
	movq	64(%rsp), %rax
	addq	$312, %rsp
	retq
.LBB87_13:
	movq	72(%rsp), %rcx
	movq	48(%rsp), %rax
	movq	(%rax), %rdx
	movq	8(%rax), %r8
	movq	16(%rax), %rax
	movq	%r8, 224(%rsp)
	movq	%rax, 232(%rsp)
	movq	224(%rsp), %rax
	movq	%rax, 296(%rsp)
	movq	80(%rsp), %rax
	movq	%rax, 304(%rsp)
	movq	224(%rsp), %r8
	movq	232(%rsp), %r9
	movq	80(%rsp), %r10
	movq	88(%rsp), %r11
	movq	%rsp, %rax
	movq	%r11, 40(%rax)
	movq	%r10, 32(%rax)
	callq	_ZN63_$LT$alloc..alloc..Global$u20$as$u20$core..alloc..Allocator$GT$4grow17h98182294e35c5148E
	movq	%rdx, 216(%rsp)
	movq	%rax, 208(%rsp)
	jmp	.LBB87_15
.LBB87_14:
	movq	72(%rsp), %rcx
	movq	80(%rsp), %rdx
	movq	88(%rsp), %r8
	callq	_ZN63_$LT$alloc..alloc..Global$u20$as$u20$core..alloc..Allocator$GT$8allocate17h811825971555d3e0E
	movq	%rdx, 216(%rsp)
	movq	%rax, 208(%rsp)
.LBB87_15:
	movq	56(%rsp), %rcx
	movq	208(%rsp), %rdx
	movq	216(%rsp), %r8
	leaq	80(%rsp), %rax
	movq	%rax, 240(%rsp)
	movq	240(%rsp), %r9
	callq	_ZN4core6result19Result$LT$T$C$E$GT$7map_err17ha12df8ab4517afd0E
	jmp	.LBB87_12
	.seh_endproc

	.def	_ZN5alloc7raw_vec11finish_grow28_$u7b$$u7b$closure$u7d$$u7d$17h0084b972faca5708E;
	.scl	3;
	.type	32;
	.endef
	.section	.text,"xr",one_only,_ZN5alloc7raw_vec11finish_grow28_$u7b$$u7b$closure$u7d$$u7d$17h0084b972faca5708E
	.p2align	4, 0x90
_ZN5alloc7raw_vec11finish_grow28_$u7b$$u7b$closure$u7d$$u7d$17h0084b972faca5708E:
.seh_proc _ZN5alloc7raw_vec11finish_grow28_$u7b$$u7b$closure$u7d$$u7d$17h0084b972faca5708E
	subq	$16, %rsp
	.seh_stackalloc 16
	.seh_endprologue
	movq	$0, (%rsp)
	movq	(%rsp), %rax
	movq	8(%rsp), %rdx
	addq	$16, %rsp
	retq
	.seh_endproc

	.def	_ZN5alloc7raw_vec11finish_grow28_$u7b$$u7b$closure$u7d$$u7d$17hd27168ff20e4720fE;
	.scl	3;
	.type	32;
	.endef
	.section	.text,"xr",one_only,_ZN5alloc7raw_vec11finish_grow28_$u7b$$u7b$closure$u7d$$u7d$17hd27168ff20e4720fE
	.p2align	4, 0x90
_ZN5alloc7raw_vec11finish_grow28_$u7b$$u7b$closure$u7d$$u7d$17hd27168ff20e4720fE:
.seh_proc _ZN5alloc7raw_vec11finish_grow28_$u7b$$u7b$closure$u7d$$u7d$17hd27168ff20e4720fE
	subq	$40, %rsp
	.seh_stackalloc 40
	.seh_endprologue
	movq	%rcx, (%rsp)
	movq	(%rsp), %rax
	movq	(%rax), %rcx
	movq	8(%rax), %rax
	movq	%rcx, 24(%rsp)
	movq	%rax, 32(%rsp)
	movq	24(%rsp), %rcx
	movq	32(%rsp), %rax
	movq	%rcx, 8(%rsp)
	movq	%rax, 16(%rsp)
	movq	8(%rsp), %rax
	movq	16(%rsp), %rdx
	addq	$40, %rsp
	retq
	.seh_endproc

	.def	_ZN5alloc7raw_vec14handle_reserve17h488c2e8e22cf903fE;
	.scl	3;
	.type	32;
	.endef
	.section	.text,"xr",one_only,_ZN5alloc7raw_vec14handle_reserve17h488c2e8e22cf903fE
	.p2align	4, 0x90
_ZN5alloc7raw_vec14handle_reserve17h488c2e8e22cf903fE:
.seh_proc _ZN5alloc7raw_vec14handle_reserve17h488c2e8e22cf903fE
	subq	$56, %rsp
	.seh_stackalloc 56
	.seh_endprologue
	callq	_ZN4core6result19Result$LT$T$C$E$GT$7map_err17h2464bb41042077bcE
	movq	%rdx, 48(%rsp)
	movq	%rax, 40(%rsp)
	movabsq	$-9223372036854775807, %rdx
	movl	$1, %eax
	xorl	%ecx, %ecx
	cmpq	%rdx, 40(%rsp)
	cmoveq	%rcx, %rax
	cmpq	$0, %rax
	jne	.LBB90_2
	addq	$56, %rsp
	retq
.LBB90_2:
	movl	$1, %eax
	xorl	%ecx, %ecx
	cmpq	$0, 40(%rsp)
	cmoveq	%rcx, %rax
	cmpq	$0, %rax
	jne	.LBB90_4
	callq	_ZN5alloc7raw_vec17capacity_overflow17h2b2ec01a5ef14e5cE
	ud2
.LBB90_4:
	movq	40(%rsp), %rcx
	movq	48(%rsp), %rdx
	callq	_ZN5alloc5alloc18handle_alloc_error17ha0366bcab66f7360E
	ud2
	.seh_endproc

	.def	_ZN5alloc7raw_vec14handle_reserve28_$u7b$$u7b$closure$u7d$$u7d$17hc4e6f94632667809E;
	.scl	3;
	.type	32;
	.endef
	.section	.text,"xr",one_only,_ZN5alloc7raw_vec14handle_reserve28_$u7b$$u7b$closure$u7d$$u7d$17hc4e6f94632667809E
	.p2align	4, 0x90
_ZN5alloc7raw_vec14handle_reserve28_$u7b$$u7b$closure$u7d$$u7d$17hc4e6f94632667809E:
.seh_proc _ZN5alloc7raw_vec14handle_reserve28_$u7b$$u7b$closure$u7d$$u7d$17hc4e6f94632667809E
	subq	$32, %rsp
	.seh_stackalloc 32
	.seh_endprologue
	movq	%rcx, (%rsp)
	movq	%rdx, 8(%rsp)
	movl	$1, %eax
	xorl	%ecx, %ecx
	cmpq	$0, (%rsp)
	cmoveq	%rcx, %rax
	cmpq	$0, %rax
	jne	.LBB91_2
	movq	$0, 16(%rsp)
	jmp	.LBB91_3
.LBB91_2:
	movq	(%rsp), %rcx
	movq	8(%rsp), %rax
	movq	%rcx, 16(%rsp)
	movq	%rax, 24(%rsp)
.LBB91_3:
	movq	16(%rsp), %rax
	movq	24(%rsp), %rdx
	addq	$32, %rsp
	retq
	.seh_endproc

	.def	_ZN5alloc7raw_vec19RawVec$LT$T$C$A$GT$11allocate_in17h342647ff78f651ecE;
	.scl	3;
	.type	32;
	.endef
	.section	.text,"xr",one_only,_ZN5alloc7raw_vec19RawVec$LT$T$C$A$GT$11allocate_in17h342647ff78f651ecE
	.p2align	4, 0x90
_ZN5alloc7raw_vec19RawVec$LT$T$C$A$GT$11allocate_in17h342647ff78f651ecE:
.Lfunc_begin16:
.seh_proc _ZN5alloc7raw_vec19RawVec$LT$T$C$A$GT$11allocate_in17h342647ff78f651ecE
	.seh_handler __CxxFrameHandler3, @unwind, @except
	pushq	%rbp
	.seh_pushreg %rbp
	subq	$240, %rsp
	.seh_stackalloc 240
	leaq	128(%rsp), %rbp
	.seh_setframe %rbp, 128
	.seh_endprologue
	movq	$-2, 104(%rbp)
	movq	%rcx, -32(%rbp)
	andb	$1, %dl
	movb	%dl, -17(%rbp)
	cmpq	$0, %rcx
	sete	%al
	andb	$1, %al
	movb	%al, 15(%rbp)
	testb	$1, 15(%rbp)
	jne	.LBB92_2
.Ltmp50:
	movq	-32(%rbp), %r8
	movl	$1, %edx
	movq	%rdx, %rcx
	callq	_ZN4core5alloc6layout6Layout5array5inner17hd01efe713a49124aE
.Ltmp51:
	movq	%rdx, -48(%rbp)
	movq	%rax, -40(%rbp)
	jmp	.LBB92_5
.LBB92_2:
	movl	$1, %eax
	movq	%rax, 88(%rbp)
	movq	88(%rbp), %rax
	movq	%rax, 80(%rbp)
	movq	80(%rbp), %rax
	movq	%rax, -8(%rbp)
	movq	$0, (%rbp)
.LBB92_3:
	movq	-8(%rbp), %rax
	movq	(%rbp), %rdx
	addq	$240, %rsp
	popq	%rbp
	retq
.LBB92_5:
	movq	-48(%rbp), %rax
	movq	-40(%rbp), %rcx
	movq	%rcx, 16(%rbp)
	movq	%rax, 24(%rbp)
	xorl	%eax, %eax
	movl	$1, %ecx
	cmpq	$0, 16(%rbp)
	cmoveq	%rcx, %rax
	cmpq	$0, %rax
	jne	.LBB92_7
	movq	16(%rbp), %rax
	movq	%rax, -64(%rbp)
	movq	24(%rbp), %rax
	movq	%rax, -56(%rbp)
	movabsq	$-9223372036854775807, %rax
	movq	%rax, 32(%rbp)
	movabsq	$-9223372036854775807, %rax
	cmpq	%rax, 32(%rbp)
	sete	%al
	testb	$1, %al
	jne	.LBB92_9
	jmp	.LBB92_10
.LBB92_7:
.Ltmp52:
	callq	_ZN5alloc7raw_vec17capacity_overflow17h2b2ec01a5ef14e5cE
.Ltmp53:
	jmp	.LBB92_8
.LBB92_8:
	ud2
.LBB92_9:
	movb	-17(%rbp), %al
	andb	$1, %al
	movzbl	%al, %eax
	cmpq	$0, %rax
	je	.LBB92_11
	jmp	.LBB92_12
.LBB92_10:
.Ltmp54:
	callq	_ZN5alloc7raw_vec17capacity_overflow17h2b2ec01a5ef14e5cE
.Ltmp55:
	jmp	.LBB92_8
.LBB92_11:
.Ltmp58:
	movq	-56(%rbp), %r8
	movq	-64(%rbp), %rdx
	leaq	-16(%rbp), %rcx
	callq	_ZN63_$LT$alloc..alloc..Global$u20$as$u20$core..alloc..Allocator$GT$8allocate17h811825971555d3e0E
.Ltmp59:
	movq	%rdx, -80(%rbp)
	movq	%rax, -72(%rbp)
	jmp	.LBB92_15
.LBB92_12:
.Ltmp56:
	movq	-56(%rbp), %r8
	movq	-64(%rbp), %rdx
	leaq	-16(%rbp), %rcx
	callq	_ZN63_$LT$alloc..alloc..Global$u20$as$u20$core..alloc..Allocator$GT$15allocate_zeroed17h16c9486d90368f10E
.Ltmp57:
	movq	%rdx, -96(%rbp)
	movq	%rax, -88(%rbp)
	jmp	.LBB92_13
.LBB92_13:
	movq	-96(%rbp), %rax
	movq	-88(%rbp), %rcx
	movq	%rcx, 48(%rbp)
	movq	%rax, 56(%rbp)
.LBB92_14:
	movq	48(%rbp), %rdx
	xorl	%eax, %eax
	movl	$1, %ecx
	cmpq	$0, %rdx
	cmoveq	%rcx, %rax
	cmpq	$0, %rax
	je	.LBB92_16
	jmp	.LBB92_17
.LBB92_15:
	movq	-80(%rbp), %rax
	movq	-72(%rbp), %rcx
	movq	%rcx, 48(%rbp)
	movq	%rax, 56(%rbp)
	jmp	.LBB92_14
.LBB92_16:
	movq	-32(%rbp), %rax
	movq	48(%rbp), %rcx
	movq	%rcx, 72(%rbp)
	movq	72(%rbp), %rcx
	movq	%rcx, 96(%rbp)
	movq	96(%rbp), %rcx
	movq	%rcx, 64(%rbp)
	movq	64(%rbp), %rcx
	movq	%rcx, -8(%rbp)
	movq	%rax, (%rbp)
	jmp	.LBB92_3
.LBB92_17:
.Ltmp60:
	movq	-56(%rbp), %rdx
	movq	-64(%rbp), %rcx
	callq	_ZN5alloc5alloc18handle_alloc_error17ha0366bcab66f7360E
.Ltmp61:
	jmp	.LBB92_8
	.seh_handlerdata
	.long	($cppxdata$_ZN5alloc7raw_vec19RawVec$LT$T$C$A$GT$11allocate_in17h342647ff78f651ecE)@IMGREL
	.section	.text,"xr",one_only,_ZN5alloc7raw_vec19RawVec$LT$T$C$A$GT$11allocate_in17h342647ff78f651ecE
	.seh_endproc
	.def	"?dtor$4@?0?_ZN5alloc7raw_vec19RawVec$LT$T$C$A$GT$11allocate_in17h342647ff78f651ecE@4HA";
	.scl	3;
	.type	32;
	.endef
	.p2align	4, 0x90
"?dtor$4@?0?_ZN5alloc7raw_vec19RawVec$LT$T$C$A$GT$11allocate_in17h342647ff78f651ecE@4HA":
.seh_proc "?dtor$4@?0?_ZN5alloc7raw_vec19RawVec$LT$T$C$A$GT$11allocate_in17h342647ff78f651ecE@4HA"
.LBB92_4:
	movq	%rdx, 16(%rsp)
	pushq	%rbp
	.seh_pushreg %rbp
	subq	$32, %rsp
	.seh_stackalloc 32
	leaq	128(%rdx), %rbp
	.seh_endprologue
	addq	$32, %rsp
	popq	%rbp
	retq
.Lfunc_end16:
	.seh_handlerdata
	.section	.text,"xr",one_only,_ZN5alloc7raw_vec19RawVec$LT$T$C$A$GT$11allocate_in17h342647ff78f651ecE
	.seh_endproc
	.section	.xdata,"dr",associative,_ZN5alloc7raw_vec19RawVec$LT$T$C$A$GT$11allocate_in17h342647ff78f651ecE
	.p2align	2, 0x0
$cppxdata$_ZN5alloc7raw_vec19RawVec$LT$T$C$A$GT$11allocate_in17h342647ff78f651ecE:
	.long	429065506
	.long	1
	.long	($stateUnwindMap$_ZN5alloc7raw_vec19RawVec$LT$T$C$A$GT$11allocate_in17h342647ff78f651ecE)@IMGREL
	.long	0
	.long	0
	.long	3
	.long	($ip2state$_ZN5alloc7raw_vec19RawVec$LT$T$C$A$GT$11allocate_in17h342647ff78f651ecE)@IMGREL
	.long	232
	.long	0
	.long	1
$stateUnwindMap$_ZN5alloc7raw_vec19RawVec$LT$T$C$A$GT$11allocate_in17h342647ff78f651ecE:
	.long	-1
	.long	"?dtor$4@?0?_ZN5alloc7raw_vec19RawVec$LT$T$C$A$GT$11allocate_in17h342647ff78f651ecE@4HA"@IMGREL
$ip2state$_ZN5alloc7raw_vec19RawVec$LT$T$C$A$GT$11allocate_in17h342647ff78f651ecE:
	.long	.Lfunc_begin16@IMGREL
	.long	-1
	.long	.Ltmp50@IMGREL+1
	.long	0
	.long	.Ltmp61@IMGREL+1
	.long	-1
	.section	.text,"xr",one_only,_ZN5alloc7raw_vec19RawVec$LT$T$C$A$GT$11allocate_in17h342647ff78f651ecE

	.def	_ZN5alloc7raw_vec19RawVec$LT$T$C$A$GT$11allocate_in17haa3edf6bbdff8c38E;
	.scl	3;
	.type	32;
	.endef
	.section	.text,"xr",one_only,_ZN5alloc7raw_vec19RawVec$LT$T$C$A$GT$11allocate_in17haa3edf6bbdff8c38E
	.p2align	4, 0x90
_ZN5alloc7raw_vec19RawVec$LT$T$C$A$GT$11allocate_in17haa3edf6bbdff8c38E:
.Lfunc_begin17:
.seh_proc _ZN5alloc7raw_vec19RawVec$LT$T$C$A$GT$11allocate_in17haa3edf6bbdff8c38E
	.seh_handler __CxxFrameHandler3, @unwind, @except
	pushq	%rbp
	.seh_pushreg %rbp
	subq	$240, %rsp
	.seh_stackalloc 240
	leaq	128(%rsp), %rbp
	.seh_setframe %rbp, 128
	.seh_endprologue
	movq	$-2, 104(%rbp)
	movq	%rcx, -32(%rbp)
	andb	$1, %dl
	movb	%dl, -17(%rbp)
	cmpq	$0, %rcx
	sete	%al
	andb	$1, %al
	movb	%al, 15(%rbp)
	testb	$1, 15(%rbp)
	jne	.LBB93_2
.Ltmp62:
	movq	-32(%rbp), %r8
	movl	$24, %ecx
	movl	$8, %edx
	callq	_ZN4core5alloc6layout6Layout5array5inner17hd01efe713a49124aE
.Ltmp63:
	movq	%rdx, -48(%rbp)
	movq	%rax, -40(%rbp)
	jmp	.LBB93_5
.LBB93_2:
	movl	$8, %eax
	movq	%rax, 88(%rbp)
	movq	88(%rbp), %rax
	movq	%rax, 80(%rbp)
	movq	80(%rbp), %rax
	movq	%rax, -8(%rbp)
	movq	$0, (%rbp)
.LBB93_3:
	movq	-8(%rbp), %rax
	movq	(%rbp), %rdx
	addq	$240, %rsp
	popq	%rbp
	retq
.LBB93_5:
	movq	-48(%rbp), %rax
	movq	-40(%rbp), %rcx
	movq	%rcx, 16(%rbp)
	movq	%rax, 24(%rbp)
	xorl	%eax, %eax
	movl	$1, %ecx
	cmpq	$0, 16(%rbp)
	cmoveq	%rcx, %rax
	cmpq	$0, %rax
	jne	.LBB93_7
	movq	16(%rbp), %rax
	movq	%rax, -64(%rbp)
	movq	24(%rbp), %rax
	movq	%rax, -56(%rbp)
	movabsq	$-9223372036854775807, %rax
	movq	%rax, 32(%rbp)
	movabsq	$-9223372036854775807, %rax
	cmpq	%rax, 32(%rbp)
	sete	%al
	testb	$1, %al
	jne	.LBB93_9
	jmp	.LBB93_10
.LBB93_7:
.Ltmp64:
	callq	_ZN5alloc7raw_vec17capacity_overflow17h2b2ec01a5ef14e5cE
.Ltmp65:
	jmp	.LBB93_8
.LBB93_8:
	ud2
.LBB93_9:
	movb	-17(%rbp), %al
	andb	$1, %al
	movzbl	%al, %eax
	cmpq	$0, %rax
	je	.LBB93_11
	jmp	.LBB93_12
.LBB93_10:
.Ltmp66:
	callq	_ZN5alloc7raw_vec17capacity_overflow17h2b2ec01a5ef14e5cE
.Ltmp67:
	jmp	.LBB93_8
.LBB93_11:
.Ltmp70:
	movq	-56(%rbp), %r8
	movq	-64(%rbp), %rdx
	leaq	-16(%rbp), %rcx
	callq	_ZN63_$LT$alloc..alloc..Global$u20$as$u20$core..alloc..Allocator$GT$8allocate17h811825971555d3e0E
.Ltmp71:
	movq	%rdx, -80(%rbp)
	movq	%rax, -72(%rbp)
	jmp	.LBB93_15
.LBB93_12:
.Ltmp68:
	movq	-56(%rbp), %r8
	movq	-64(%rbp), %rdx
	leaq	-16(%rbp), %rcx
	callq	_ZN63_$LT$alloc..alloc..Global$u20$as$u20$core..alloc..Allocator$GT$15allocate_zeroed17h16c9486d90368f10E
.Ltmp69:
	movq	%rdx, -96(%rbp)
	movq	%rax, -88(%rbp)
	jmp	.LBB93_13
.LBB93_13:
	movq	-96(%rbp), %rax
	movq	-88(%rbp), %rcx
	movq	%rcx, 48(%rbp)
	movq	%rax, 56(%rbp)
.LBB93_14:
	movq	48(%rbp), %rdx
	xorl	%eax, %eax
	movl	$1, %ecx
	cmpq	$0, %rdx
	cmoveq	%rcx, %rax
	cmpq	$0, %rax
	je	.LBB93_16
	jmp	.LBB93_17
.LBB93_15:
	movq	-80(%rbp), %rax
	movq	-72(%rbp), %rcx
	movq	%rcx, 48(%rbp)
	movq	%rax, 56(%rbp)
	jmp	.LBB93_14
.LBB93_16:
	movq	-32(%rbp), %rax
	movq	48(%rbp), %rcx
	movq	%rcx, 72(%rbp)
	movq	72(%rbp), %rcx
	movq	%rcx, 96(%rbp)
	movq	96(%rbp), %rcx
	movq	%rcx, 64(%rbp)
	movq	64(%rbp), %rcx
	movq	%rcx, -8(%rbp)
	movq	%rax, (%rbp)
	jmp	.LBB93_3
.LBB93_17:
.Ltmp72:
	movq	-56(%rbp), %rdx
	movq	-64(%rbp), %rcx
	callq	_ZN5alloc5alloc18handle_alloc_error17ha0366bcab66f7360E
.Ltmp73:
	jmp	.LBB93_8
	.seh_handlerdata
	.long	($cppxdata$_ZN5alloc7raw_vec19RawVec$LT$T$C$A$GT$11allocate_in17haa3edf6bbdff8c38E)@IMGREL
	.section	.text,"xr",one_only,_ZN5alloc7raw_vec19RawVec$LT$T$C$A$GT$11allocate_in17haa3edf6bbdff8c38E
	.seh_endproc
	.def	"?dtor$4@?0?_ZN5alloc7raw_vec19RawVec$LT$T$C$A$GT$11allocate_in17haa3edf6bbdff8c38E@4HA";
	.scl	3;
	.type	32;
	.endef
	.p2align	4, 0x90
"?dtor$4@?0?_ZN5alloc7raw_vec19RawVec$LT$T$C$A$GT$11allocate_in17haa3edf6bbdff8c38E@4HA":
.seh_proc "?dtor$4@?0?_ZN5alloc7raw_vec19RawVec$LT$T$C$A$GT$11allocate_in17haa3edf6bbdff8c38E@4HA"
.LBB93_4:
	movq	%rdx, 16(%rsp)
	pushq	%rbp
	.seh_pushreg %rbp
	subq	$32, %rsp
	.seh_stackalloc 32
	leaq	128(%rdx), %rbp
	.seh_endprologue
	addq	$32, %rsp
	popq	%rbp
	retq
.Lfunc_end17:
	.seh_handlerdata
	.section	.text,"xr",one_only,_ZN5alloc7raw_vec19RawVec$LT$T$C$A$GT$11allocate_in17haa3edf6bbdff8c38E
	.seh_endproc
	.section	.xdata,"dr",associative,_ZN5alloc7raw_vec19RawVec$LT$T$C$A$GT$11allocate_in17haa3edf6bbdff8c38E
	.p2align	2, 0x0
$cppxdata$_ZN5alloc7raw_vec19RawVec$LT$T$C$A$GT$11allocate_in17haa3edf6bbdff8c38E:
	.long	429065506
	.long	1
	.long	($stateUnwindMap$_ZN5alloc7raw_vec19RawVec$LT$T$C$A$GT$11allocate_in17haa3edf6bbdff8c38E)@IMGREL
	.long	0
	.long	0
	.long	3
	.long	($ip2state$_ZN5alloc7raw_vec19RawVec$LT$T$C$A$GT$11allocate_in17haa3edf6bbdff8c38E)@IMGREL
	.long	232
	.long	0
	.long	1
$stateUnwindMap$_ZN5alloc7raw_vec19RawVec$LT$T$C$A$GT$11allocate_in17haa3edf6bbdff8c38E:
	.long	-1
	.long	"?dtor$4@?0?_ZN5alloc7raw_vec19RawVec$LT$T$C$A$GT$11allocate_in17haa3edf6bbdff8c38E@4HA"@IMGREL
$ip2state$_ZN5alloc7raw_vec19RawVec$LT$T$C$A$GT$11allocate_in17haa3edf6bbdff8c38E:
	.long	.Lfunc_begin17@IMGREL
	.long	-1
	.long	.Ltmp62@IMGREL+1
	.long	0
	.long	.Ltmp73@IMGREL+1
	.long	-1
	.section	.text,"xr",one_only,_ZN5alloc7raw_vec19RawVec$LT$T$C$A$GT$11allocate_in17haa3edf6bbdff8c38E

	.def	_ZN5alloc7raw_vec19RawVec$LT$T$C$A$GT$14current_memory17h48a6ef0179852357E;
	.scl	3;
	.type	32;
	.endef
	.section	.text,"xr",one_only,_ZN5alloc7raw_vec19RawVec$LT$T$C$A$GT$14current_memory17h48a6ef0179852357E
	.p2align	4, 0x90
_ZN5alloc7raw_vec19RawVec$LT$T$C$A$GT$14current_memory17h48a6ef0179852357E:
.seh_proc _ZN5alloc7raw_vec19RawVec$LT$T$C$A$GT$14current_memory17h48a6ef0179852357E
	subq	$112, %rsp
	.seh_stackalloc 112
	.seh_endprologue
	movq	%rdx, (%rsp)
	movq	%rcx, 8(%rsp)
	movq	%rcx, 16(%rsp)
	xorl	%eax, %eax
	testb	$1, %al
	jne	.LBB94_2
	movq	(%rsp), %rax
	cmpq	$0, 8(%rax)
	sete	%al
	andb	$1, %al
	movb	%al, 31(%rsp)
	jmp	.LBB94_3
.LBB94_2:
	movb	$1, 31(%rsp)
.LBB94_3:
	testb	$1, 31(%rsp)
	jne	.LBB94_5
	movq	8(%rsp), %rax
	movq	(%rsp), %rcx
	imulq	$24, 8(%rcx), %rdx
	movq	%rdx, 104(%rsp)
	movq	104(%rsp), %rdx
	movq	%rdx, 40(%rsp)
	movq	$8, 32(%rsp)
	movq	(%rcx), %rcx
	movq	%rcx, 88(%rsp)
	movq	88(%rsp), %rcx
	movq	%rcx, 96(%rsp)
	movq	96(%rsp), %rcx
	movq	%rcx, 80(%rsp)
	movq	80(%rsp), %rcx
	movq	%rcx, 72(%rsp)
	movq	72(%rsp), %rcx
	movq	%rcx, 48(%rsp)
	movq	32(%rsp), %rdx
	movq	40(%rsp), %rcx
	movq	%rdx, 56(%rsp)
	movq	%rcx, 64(%rsp)
	movq	48(%rsp), %rcx
	movq	%rcx, (%rax)
	movq	56(%rsp), %rcx
	movq	%rcx, 8(%rax)
	movq	64(%rsp), %rcx
	movq	%rcx, 16(%rax)
	jmp	.LBB94_6
.LBB94_5:
	movq	8(%rsp), %rax
	movq	$0, 8(%rax)
.LBB94_6:
	movq	16(%rsp), %rax
	addq	$112, %rsp
	retq
	.seh_endproc

	.def	_ZN5alloc7raw_vec19RawVec$LT$T$C$A$GT$14current_memory17h53de2ff81bb121c6E;
	.scl	3;
	.type	32;
	.endef
	.section	.text,"xr",one_only,_ZN5alloc7raw_vec19RawVec$LT$T$C$A$GT$14current_memory17h53de2ff81bb121c6E
	.p2align	4, 0x90
_ZN5alloc7raw_vec19RawVec$LT$T$C$A$GT$14current_memory17h53de2ff81bb121c6E:
.seh_proc _ZN5alloc7raw_vec19RawVec$LT$T$C$A$GT$14current_memory17h53de2ff81bb121c6E
	subq	$112, %rsp
	.seh_stackalloc 112
	.seh_endprologue
	movq	%rdx, (%rsp)
	movq	%rcx, 8(%rsp)
	movq	%rcx, 16(%rsp)
	xorl	%eax, %eax
	testb	$1, %al
	jne	.LBB95_2
	movq	(%rsp), %rax
	cmpq	$0, 8(%rax)
	sete	%al
	andb	$1, %al
	movb	%al, 31(%rsp)
	jmp	.LBB95_3
.LBB95_2:
	movb	$1, 31(%rsp)
.LBB95_3:
	testb	$1, 31(%rsp)
	jne	.LBB95_5
	movq	8(%rsp), %rax
	movq	(%rsp), %rcx
	movq	8(%rcx), %rdx
	shlq	$5, %rdx
	movq	%rdx, 104(%rsp)
	movq	104(%rsp), %rdx
	movq	%rdx, 40(%rsp)
	movq	$8, 32(%rsp)
	movq	(%rcx), %rcx
	movq	%rcx, 88(%rsp)
	movq	88(%rsp), %rcx
	movq	%rcx, 96(%rsp)
	movq	96(%rsp), %rcx
	movq	%rcx, 80(%rsp)
	movq	80(%rsp), %rcx
	movq	%rcx, 72(%rsp)
	movq	72(%rsp), %rcx
	movq	%rcx, 48(%rsp)
	movq	32(%rsp), %rdx
	movq	40(%rsp), %rcx
	movq	%rdx, 56(%rsp)
	movq	%rcx, 64(%rsp)
	movq	48(%rsp), %rcx
	movq	%rcx, (%rax)
	movq	56(%rsp), %rcx
	movq	%rcx, 8(%rax)
	movq	64(%rsp), %rcx
	movq	%rcx, 16(%rax)
	jmp	.LBB95_6
.LBB95_5:
	movq	8(%rsp), %rax
	movq	$0, 8(%rax)
.LBB95_6:
	movq	16(%rsp), %rax
	addq	$112, %rsp
	retq
	.seh_endproc

	.def	_ZN5alloc7raw_vec19RawVec$LT$T$C$A$GT$14current_memory17h756f5a01fd5c919dE;
	.scl	3;
	.type	32;
	.endef
	.section	.text,"xr",one_only,_ZN5alloc7raw_vec19RawVec$LT$T$C$A$GT$14current_memory17h756f5a01fd5c919dE
	.p2align	4, 0x90
_ZN5alloc7raw_vec19RawVec$LT$T$C$A$GT$14current_memory17h756f5a01fd5c919dE:
.seh_proc _ZN5alloc7raw_vec19RawVec$LT$T$C$A$GT$14current_memory17h756f5a01fd5c919dE
	subq	$112, %rsp
	.seh_stackalloc 112
	.seh_endprologue
	movq	%rdx, (%rsp)
	movq	%rcx, 8(%rsp)
	movq	%rcx, 16(%rsp)
	xorl	%eax, %eax
	testb	$1, %al
	jne	.LBB96_2
	movq	(%rsp), %rax
	cmpq	$0, 8(%rax)
	sete	%al
	andb	$1, %al
	movb	%al, 31(%rsp)
	jmp	.LBB96_3
.LBB96_2:
	movb	$1, 31(%rsp)
.LBB96_3:
	testb	$1, 31(%rsp)
	jne	.LBB96_5
	movq	8(%rsp), %rax
	movq	(%rsp), %rcx
	movq	8(%rcx), %rdx
	shlq	$0, %rdx
	movq	%rdx, 104(%rsp)
	movq	104(%rsp), %rdx
	movq	%rdx, 40(%rsp)
	movq	$1, 32(%rsp)
	movq	(%rcx), %rcx
	movq	%rcx, 88(%rsp)
	movq	88(%rsp), %rcx
	movq	%rcx, 96(%rsp)
	movq	96(%rsp), %rcx
	movq	%rcx, 80(%rsp)
	movq	80(%rsp), %rcx
	movq	%rcx, 72(%rsp)
	movq	72(%rsp), %rcx
	movq	%rcx, 48(%rsp)
	movq	32(%rsp), %rdx
	movq	40(%rsp), %rcx
	movq	%rdx, 56(%rsp)
	movq	%rcx, 64(%rsp)
	movq	48(%rsp), %rcx
	movq	%rcx, (%rax)
	movq	56(%rsp), %rcx
	movq	%rcx, 8(%rax)
	movq	64(%rsp), %rcx
	movq	%rcx, 16(%rax)
	jmp	.LBB96_6
.LBB96_5:
	movq	8(%rsp), %rax
	movq	$0, 8(%rax)
.LBB96_6:
	movq	16(%rsp), %rax
	addq	$112, %rsp
	retq
	.seh_endproc

	.def	_ZN5alloc7raw_vec19RawVec$LT$T$C$A$GT$14grow_amortized17h54d528d2d97188a8E;
	.scl	3;
	.type	32;
	.endef
	.section	.text,"xr",one_only,_ZN5alloc7raw_vec19RawVec$LT$T$C$A$GT$14grow_amortized17h54d528d2d97188a8E
	.p2align	4, 0x90
_ZN5alloc7raw_vec19RawVec$LT$T$C$A$GT$14grow_amortized17h54d528d2d97188a8E:
.seh_proc _ZN5alloc7raw_vec19RawVec$LT$T$C$A$GT$14grow_amortized17h54d528d2d97188a8E
	subq	$392, %rsp
	.seh_stackalloc 392
	.seh_endprologue
	movq	%r8, 80(%rsp)
	movq	%rdx, 88(%rsp)
	movq	%rcx, 96(%rsp)
	xorl	%eax, %eax
	testb	$1, %al
	jne	.LBB97_2
	movq	80(%rsp), %rax
	movq	88(%rsp), %rcx
	addq	%rax, %rcx
	setb	%al
	movq	%rcx, 320(%rsp)
	andb	$1, %al
	movb	%al, 328(%rsp)
	movq	320(%rsp), %rax
	movq	%rax, 72(%rsp)
	movb	328(%rsp), %al
	andb	$1, %al
	movb	%al, 391(%rsp)
	testb	$1, 391(%rsp)
	jne	.LBB97_5
	jmp	.LBB97_4
.LBB97_2:
	movq	$0, 136(%rsp)
	movq	136(%rsp), %rcx
	movq	144(%rsp), %rax
	movq	%rcx, 120(%rsp)
	movq	%rax, 128(%rsp)
	movq	120(%rsp), %rcx
	movq	128(%rsp), %rax
	movq	%rcx, 104(%rsp)
	movq	%rax, 112(%rsp)
.LBB97_3:
	movq	104(%rsp), %rax
	movq	112(%rsp), %rdx
	addq	$392, %rsp
	retq
.LBB97_4:
	movq	72(%rsp), %rax
	movq	%rax, 192(%rsp)
	movq	$1, 184(%rsp)
	jmp	.LBB97_6
.LBB97_5:
	movq	$0, 184(%rsp)
.LBB97_6:
	movq	$0, 200(%rsp)
	cmpq	$0, 184(%rsp)
	jne	.LBB97_8
	movq	200(%rsp), %rcx
	movq	208(%rsp), %rax
	movq	%rcx, 168(%rsp)
	movq	%rax, 176(%rsp)
	jmp	.LBB97_9
.LBB97_8:
	movq	192(%rsp), %rax
	movq	%rax, 176(%rsp)
	movabsq	$-9223372036854775807, %rax
	movq	%rax, 168(%rsp)
.LBB97_9:
	movabsq	$-9223372036854775807, %rdx
	movl	$1, %eax
	xorl	%ecx, %ecx
	cmpq	%rdx, 168(%rsp)
	cmoveq	%rcx, %rax
	cmpq	$0, %rax
	jne	.LBB97_11
	movq	176(%rsp), %rax
	movq	%rax, 160(%rsp)
	movabsq	$-9223372036854775807, %rax
	movq	%rax, 152(%rsp)
	jmp	.LBB97_12
.LBB97_11:
	movq	168(%rsp), %rcx
	movq	176(%rsp), %rax
	movq	%rcx, 336(%rsp)
	movq	%rax, 344(%rsp)
	movq	336(%rsp), %rcx
	movq	344(%rsp), %rax
	movq	%rcx, 152(%rsp)
	movq	%rax, 160(%rsp)
.LBB97_12:
	movabsq	$-9223372036854775807, %rdx
	movl	$1, %eax
	xorl	%ecx, %ecx
	cmpq	%rdx, 152(%rsp)
	cmoveq	%rcx, %rax
	cmpq	$0, %rax
	jne	.LBB97_14
	movq	96(%rsp), %rax
	movq	160(%rsp), %rdx
	movq	8(%rax), %rcx
	shlq	$1, %rcx
	callq	_ZN4core3cmp6max_by17h118efc92c3261ec2E
	movq	%rax, %rdx
	movl	$4, %ecx
	callq	_ZN4core3cmp6max_by17h118efc92c3261ec2E
	movq	%rax, %r8
	movq	%r8, 48(%rsp)
	movl	$24, %ecx
	movl	$8, %edx
	callq	_ZN4core5alloc6layout6Layout5array5inner17hd01efe713a49124aE
	movq	%rax, 56(%rsp)
	movq	%rdx, %rax
	movq	96(%rsp), %rdx
	movq	%rax, 64(%rsp)
	leaq	280(%rsp), %rcx
	callq	_ZN5alloc7raw_vec19RawVec$LT$T$C$A$GT$14current_memory17h48a6ef0179852357E
	movq	56(%rsp), %rdx
	movq	64(%rsp), %r8
	movq	96(%rsp), %rax
	leaq	256(%rsp), %rcx
	leaq	280(%rsp), %r9
	movq	%rax, 32(%rsp)
	callq	_ZN5alloc7raw_vec11finish_grow17h60092d5484246624E
	cmpq	$0, 256(%rsp)
	je	.LBB97_15
	jmp	.LBB97_16
.LBB97_14:
	movq	152(%rsp), %rcx
	movq	160(%rsp), %rax
	movq	%rcx, 216(%rsp)
	movq	%rax, 224(%rsp)
	movq	216(%rsp), %rcx
	movq	224(%rsp), %rax
	movq	%rcx, 352(%rsp)
	movq	%rax, 360(%rsp)
	movq	352(%rsp), %rcx
	movq	360(%rsp), %rax
	movq	%rcx, 104(%rsp)
	movq	%rax, 112(%rsp)
	jmp	.LBB97_3
.LBB97_15:
	movq	264(%rsp), %rcx
	movq	272(%rsp), %rax
	movq	%rcx, 240(%rsp)
	movq	%rax, 248(%rsp)
	movq	$0, 232(%rsp)
	jmp	.LBB97_17
.LBB97_16:
	movq	264(%rsp), %rcx
	movq	272(%rsp), %rax
	movq	%rcx, 368(%rsp)
	movq	%rax, 376(%rsp)
	movq	368(%rsp), %rcx
	movq	376(%rsp), %rax
	movq	%rcx, 240(%rsp)
	movq	%rax, 248(%rsp)
	movq	$1, 232(%rsp)
.LBB97_17:
	cmpq	$0, 232(%rsp)
	jne	.LBB97_19
	movq	48(%rsp), %r9
	movq	96(%rsp), %rcx
	movq	240(%rsp), %rdx
	movq	248(%rsp), %r8
	callq	_ZN5alloc7raw_vec19RawVec$LT$T$C$A$GT$15set_ptr_and_cap17h5588b7ecfb98c0a8E
	movabsq	$-9223372036854775807, %rax
	movq	%rax, 104(%rsp)
	jmp	.LBB97_3
.LBB97_19:
	movq	240(%rsp), %rcx
	movq	248(%rsp), %rax
	movq	%rcx, 304(%rsp)
	movq	%rax, 312(%rsp)
	movq	304(%rsp), %rcx
	movq	312(%rsp), %rax
	movq	%rcx, 104(%rsp)
	movq	%rax, 112(%rsp)
	jmp	.LBB97_3
	.seh_endproc

	.def	_ZN5alloc7raw_vec19RawVec$LT$T$C$A$GT$15set_ptr_and_cap17h5588b7ecfb98c0a8E;
	.scl	3;
	.type	32;
	.endef
	.section	.text,"xr",one_only,_ZN5alloc7raw_vec19RawVec$LT$T$C$A$GT$15set_ptr_and_cap17h5588b7ecfb98c0a8E
	.p2align	4, 0x90
_ZN5alloc7raw_vec19RawVec$LT$T$C$A$GT$15set_ptr_and_cap17h5588b7ecfb98c0a8E:
.seh_proc _ZN5alloc7raw_vec19RawVec$LT$T$C$A$GT$15set_ptr_and_cap17h5588b7ecfb98c0a8E
	subq	$24, %rsp
	.seh_stackalloc 24
	.seh_endprologue
	movq	%rdx, 8(%rsp)
	movq	8(%rsp), %rax
	movq	%rax, 16(%rsp)
	movq	16(%rsp), %rax
	movq	%rax, (%rsp)
	movq	(%rsp), %rax
	movq	%rax, (%rcx)
	movq	%r9, 8(%rcx)
	addq	$24, %rsp
	retq
	.seh_endproc

	.def	_ZN5alloc7raw_vec19RawVec$LT$T$C$A$GT$7reserve21do_reserve_and_handle17h83f1e68969fda873E;
	.scl	3;
	.type	32;
	.endef
	.section	.text,"xr",one_only,_ZN5alloc7raw_vec19RawVec$LT$T$C$A$GT$7reserve21do_reserve_and_handle17h83f1e68969fda873E
	.p2align	4, 0x90
_ZN5alloc7raw_vec19RawVec$LT$T$C$A$GT$7reserve21do_reserve_and_handle17h83f1e68969fda873E:
.seh_proc _ZN5alloc7raw_vec19RawVec$LT$T$C$A$GT$7reserve21do_reserve_and_handle17h83f1e68969fda873E
	subq	$40, %rsp
	.seh_stackalloc 40
	.seh_endprologue
	callq	_ZN5alloc7raw_vec19RawVec$LT$T$C$A$GT$14grow_amortized17h54d528d2d97188a8E
	movq	%rax, %rcx
	callq	_ZN5alloc7raw_vec14handle_reserve17h488c2e8e22cf903fE
	nop
	addq	$40, %rsp
	retq
	.seh_endproc

	.def	_ZN63_$LT$I$u20$as$u20$core..iter..traits..collect..IntoIterator$GT$9into_iter17h6d1cce3b3b1ae3d0E;
	.scl	3;
	.type	32;
	.endef
	.section	.text,"xr",one_only,_ZN63_$LT$I$u20$as$u20$core..iter..traits..collect..IntoIterator$GT$9into_iter17h6d1cce3b3b1ae3d0E
	.p2align	4, 0x90
_ZN63_$LT$I$u20$as$u20$core..iter..traits..collect..IntoIterator$GT$9into_iter17h6d1cce3b3b1ae3d0E:
	movq	%rcx, %rax
	movq	(%rdx), %r8
	movq	%r8, (%rcx)
	movq	8(%rdx), %r8
	movq	%r8, 8(%rcx)
	movq	16(%rdx), %r8
	movq	%r8, 16(%rcx)
	movq	24(%rdx), %rdx
	movq	%rdx, 24(%rcx)
	retq

	.def	_ZN63_$LT$I$u20$as$u20$core..iter..traits..collect..IntoIterator$GT$9into_iter17ha8be961d7065cc35E;
	.scl	3;
	.type	32;
	.endef
	.section	.text,"xr",one_only,_ZN63_$LT$I$u20$as$u20$core..iter..traits..collect..IntoIterator$GT$9into_iter17ha8be961d7065cc35E
	.p2align	4, 0x90
_ZN63_$LT$I$u20$as$u20$core..iter..traits..collect..IntoIterator$GT$9into_iter17ha8be961d7065cc35E:
	movl	%ecx, %eax
	retq

	.def	_ZN63_$LT$I$u20$as$u20$core..iter..traits..collect..IntoIterator$GT$9into_iter17hcab4129d793eadbcE;
	.scl	3;
	.type	32;
	.endef
	.section	.text,"xr",one_only,_ZN63_$LT$I$u20$as$u20$core..iter..traits..collect..IntoIterator$GT$9into_iter17hcab4129d793eadbcE
	.p2align	4, 0x90
_ZN63_$LT$I$u20$as$u20$core..iter..traits..collect..IntoIterator$GT$9into_iter17hcab4129d793eadbcE:
	movq	%r9, %r10
	movq	%rcx, %rax
	movq	40(%rsp), %r9
	movq	%r10, 16(%rcx)
	movq	%r9, 24(%rcx)
	movq	%rdx, (%rcx)
	movq	%r8, 8(%rcx)
	retq

	.def	_ZN63_$LT$alloc..alloc..Global$u20$as$u20$core..alloc..Allocator$GT$10deallocate17h3abe40701abeea38E;
	.scl	3;
	.type	32;
	.endef
	.section	.text,"xr",one_only,_ZN63_$LT$alloc..alloc..Global$u20$as$u20$core..alloc..Allocator$GT$10deallocate17h3abe40701abeea38E
	.p2align	4, 0x90
_ZN63_$LT$alloc..alloc..Global$u20$as$u20$core..alloc..Allocator$GT$10deallocate17h3abe40701abeea38E:
.seh_proc _ZN63_$LT$alloc..alloc..Global$u20$as$u20$core..alloc..Allocator$GT$10deallocate17h3abe40701abeea38E
	subq	$88, %rsp
	.seh_stackalloc 88
	.seh_endprologue
	movq	%rdx, 40(%rsp)
	movq	%r8, 48(%rsp)
	movq	%r9, 56(%rsp)
	cmpq	$0, 56(%rsp)
	jne	.LBB103_2
	jmp	.LBB103_3
.LBB103_2:
	movq	40(%rsp), %rcx
	movq	48(%rsp), %rdx
	movq	56(%rsp), %rax
	movq	%rdx, 64(%rsp)
	movq	%rax, 72(%rsp)
	movq	72(%rsp), %rdx
	movq	64(%rsp), %rax
	movq	%rax, 80(%rsp)
	movq	80(%rsp), %r8
	callq	__rust_dealloc
.LBB103_3:
	nop
	addq	$88, %rsp
	retq
	.seh_endproc

	.def	_ZN63_$LT$alloc..alloc..Global$u20$as$u20$core..alloc..Allocator$GT$15allocate_zeroed17h16c9486d90368f10E;
	.scl	3;
	.type	32;
	.endef
	.section	.text,"xr",one_only,_ZN63_$LT$alloc..alloc..Global$u20$as$u20$core..alloc..Allocator$GT$15allocate_zeroed17h16c9486d90368f10E
	.p2align	4, 0x90
_ZN63_$LT$alloc..alloc..Global$u20$as$u20$core..alloc..Allocator$GT$15allocate_zeroed17h16c9486d90368f10E:
.seh_proc _ZN63_$LT$alloc..alloc..Global$u20$as$u20$core..alloc..Allocator$GT$15allocate_zeroed17h16c9486d90368f10E
	subq	$40, %rsp
	.seh_stackalloc 40
	.seh_endprologue
	movb	$1, %r9b
	callq	_ZN5alloc5alloc6Global10alloc_impl17h7fdc0bde8e71743eE
	nop
	addq	$40, %rsp
	retq
	.seh_endproc

	.def	_ZN63_$LT$alloc..alloc..Global$u20$as$u20$core..alloc..Allocator$GT$4grow17h98182294e35c5148E;
	.scl	3;
	.type	32;
	.endef
	.section	.text,"xr",one_only,_ZN63_$LT$alloc..alloc..Global$u20$as$u20$core..alloc..Allocator$GT$4grow17h98182294e35c5148E
	.p2align	4, 0x90
_ZN63_$LT$alloc..alloc..Global$u20$as$u20$core..alloc..Allocator$GT$4grow17h98182294e35c5148E:
.seh_proc _ZN63_$LT$alloc..alloc..Global$u20$as$u20$core..alloc..Allocator$GT$4grow17h98182294e35c5148E
	subq	$56, %rsp
	.seh_stackalloc 56
	.seh_endprologue
	movq	104(%rsp), %r11
	movq	96(%rsp), %r10
	movq	%rsp, %rax
	movq	%r11, 40(%rax)
	movq	%r10, 32(%rax)
	movb	$0, 48(%rax)
	callq	_ZN5alloc5alloc6Global9grow_impl17hdf4242133c41d3f3E
	nop
	addq	$56, %rsp
	retq
	.seh_endproc

	.def	_ZN63_$LT$alloc..alloc..Global$u20$as$u20$core..alloc..Allocator$GT$8allocate17h811825971555d3e0E;
	.scl	3;
	.type	32;
	.endef
	.section	.text,"xr",one_only,_ZN63_$LT$alloc..alloc..Global$u20$as$u20$core..alloc..Allocator$GT$8allocate17h811825971555d3e0E
	.p2align	4, 0x90
_ZN63_$LT$alloc..alloc..Global$u20$as$u20$core..alloc..Allocator$GT$8allocate17h811825971555d3e0E:
.seh_proc _ZN63_$LT$alloc..alloc..Global$u20$as$u20$core..alloc..Allocator$GT$8allocate17h811825971555d3e0E
	subq	$40, %rsp
	.seh_stackalloc 40
	.seh_endprologue
	xorl	%eax, %eax
	movb	%al, %r9b
	callq	_ZN5alloc5alloc6Global10alloc_impl17h7fdc0bde8e71743eE
	nop
	addq	$40, %rsp
	retq
	.seh_endproc

	.def	_ZN65_$LT$alloc..string..String$u20$as$u20$core..ops..deref..Deref$GT$5deref17hdeefef2faf4aef10E;
	.scl	3;
	.type	32;
	.endef
	.section	.text,"xr",one_only,_ZN65_$LT$alloc..string..String$u20$as$u20$core..ops..deref..Deref$GT$5deref17hdeefef2faf4aef10E
	.p2align	4, 0x90
_ZN65_$LT$alloc..string..String$u20$as$u20$core..ops..deref..Deref$GT$5deref17hdeefef2faf4aef10E:
.seh_proc _ZN65_$LT$alloc..string..String$u20$as$u20$core..ops..deref..Deref$GT$5deref17hdeefef2faf4aef10E
	subq	$32, %rsp
	.seh_stackalloc 32
	.seh_endprologue
	movq	%rcx, %rax
	movq	(%rax), %rcx
	movq	16(%rax), %rax
	movq	%rcx, 16(%rsp)
	movq	%rax, 24(%rsp)
	movq	16(%rsp), %rcx
	movq	24(%rsp), %rax
	movq	%rcx, (%rsp)
	movq	%rax, 8(%rsp)
	movq	(%rsp), %rax
	movq	8(%rsp), %rdx
	addq	$32, %rsp
	retq
	.seh_endproc

	.def	_ZN66_$LT$core..option..Option$LT$T$GT$$u20$as$u20$core..fmt..Debug$GT$3fmt17h2cc0af023452be4cE;
	.scl	3;
	.type	32;
	.endef
	.section	.text,"xr",one_only,_ZN66_$LT$core..option..Option$LT$T$GT$$u20$as$u20$core..fmt..Debug$GT$3fmt17h2cc0af023452be4cE
	.p2align	4, 0x90
_ZN66_$LT$core..option..Option$LT$T$GT$$u20$as$u20$core..fmt..Debug$GT$3fmt17h2cc0af023452be4cE:
.seh_proc _ZN66_$LT$core..option..Option$LT$T$GT$$u20$as$u20$core..fmt..Debug$GT$3fmt17h2cc0af023452be4cE
	subq	$72, %rsp
	.seh_stackalloc 72
	.seh_endprologue
	movq	%rdx, 40(%rsp)
	movq	%rcx, 48(%rsp)
	cmpq	$0, (%rcx)
	jne	.LBB108_2
	movq	40(%rsp), %rcx
	leaq	__unnamed_19(%rip), %rdx
	movl	$4, %r8d
	callq	_ZN4core3fmt9Formatter9write_str17ha90f9b8142828891E
	andb	$1, %al
	movb	%al, 63(%rsp)
	jmp	.LBB108_3
.LBB108_2:
	movq	40(%rsp), %rcx
	movq	48(%rsp), %rax
	addq	$8, %rax
	movq	%rax, 64(%rsp)
	leaq	__unnamed_20(%rip), %rdx
	movl	$4, %r8d
	leaq	64(%rsp), %r9
	leaq	__unnamed_21(%rip), %rax
	movq	%rax, 32(%rsp)
	callq	_ZN4core3fmt9Formatter25debug_tuple_field1_finish17h08085e91de6e450eE
	andb	$1, %al
	movb	%al, 63(%rsp)
.LBB108_3:
	movb	63(%rsp), %al
	andb	$1, %al
	movzbl	%al, %eax
	addq	$72, %rsp
	retq
	.seh_endproc

	.def	_ZN70_$LT$alloc..vec..Vec$LT$T$C$A$GT$$u20$as$u20$core..ops..drop..Drop$GT$4drop17hbf4041e70a82aa7cE;
	.scl	3;
	.type	32;
	.endef
	.section	.text,"xr",one_only,_ZN70_$LT$alloc..vec..Vec$LT$T$C$A$GT$$u20$as$u20$core..ops..drop..Drop$GT$4drop17hbf4041e70a82aa7cE
	.p2align	4, 0x90
_ZN70_$LT$alloc..vec..Vec$LT$T$C$A$GT$$u20$as$u20$core..ops..drop..Drop$GT$4drop17hbf4041e70a82aa7cE:
.seh_proc _ZN70_$LT$alloc..vec..Vec$LT$T$C$A$GT$$u20$as$u20$core..ops..drop..Drop$GT$4drop17hbf4041e70a82aa7cE
	subq	$72, %rsp
	.seh_stackalloc 72
	.seh_endprologue
	movq	%rcx, %rax
	movq	(%rax), %rcx
	movq	16(%rax), %rax
	movq	%rcx, 56(%rsp)
	movq	%rax, 64(%rsp)
	movq	56(%rsp), %rcx
	movq	64(%rsp), %rax
	movq	%rcx, 40(%rsp)
	movq	%rax, 48(%rsp)
	movq	40(%rsp), %rcx
	movq	48(%rsp), %rdx
	callq	_ZN4core3ptr52drop_in_place$LT$$u5b$alloc..string..String$u5d$$GT$17h3f3e0fc9b5bd7074E
	nop
	addq	$72, %rsp
	retq
	.seh_endproc

	.def	_ZN70_$LT$alloc..vec..Vec$LT$T$C$A$GT$$u20$as$u20$core..ops..drop..Drop$GT$4drop17hf5b847e533c55ae3E;
	.scl	3;
	.type	32;
	.endef
	.section	.text,"xr",one_only,_ZN70_$LT$alloc..vec..Vec$LT$T$C$A$GT$$u20$as$u20$core..ops..drop..Drop$GT$4drop17hf5b847e533c55ae3E
	.p2align	4, 0x90
_ZN70_$LT$alloc..vec..Vec$LT$T$C$A$GT$$u20$as$u20$core..ops..drop..Drop$GT$4drop17hf5b847e533c55ae3E:
.seh_proc _ZN70_$LT$alloc..vec..Vec$LT$T$C$A$GT$$u20$as$u20$core..ops..drop..Drop$GT$4drop17hf5b847e533c55ae3E
	subq	$32, %rsp
	.seh_stackalloc 32
	.seh_endprologue
	movq	%rcx, %rax
	movq	(%rax), %rcx
	movq	16(%rax), %rax
	movq	%rcx, 16(%rsp)
	movq	%rax, 24(%rsp)
	movq	16(%rsp), %rcx
	movq	24(%rsp), %rax
	movq	%rcx, (%rsp)
	movq	%rax, 8(%rsp)
	addq	$32, %rsp
	retq
	.seh_endproc

	.def	_ZN75_$LT$usize$u20$as$u20$core..slice..index..SliceIndex$LT$$u5b$T$u5d$$GT$$GT$5index17hf26b4a918e70127bE;
	.scl	3;
	.type	32;
	.endef
	.section	.text,"xr",one_only,_ZN75_$LT$usize$u20$as$u20$core..slice..index..SliceIndex$LT$$u5b$T$u5d$$GT$$GT$5index17hf26b4a918e70127bE
	.p2align	4, 0x90
_ZN75_$LT$usize$u20$as$u20$core..slice..index..SliceIndex$LT$$u5b$T$u5d$$GT$$GT$5index17hf26b4a918e70127bE:
.seh_proc _ZN75_$LT$usize$u20$as$u20$core..slice..index..SliceIndex$LT$$u5b$T$u5d$$GT$$GT$5index17hf26b4a918e70127bE
	subq	$72, %rsp
	.seh_stackalloc 72
	.seh_endprologue
	movq	%r9, 40(%rsp)
	movq	%r8, 48(%rsp)
	movq	%rdx, 56(%rsp)
	movq	%rcx, 64(%rsp)
	cmpq	%r8, %rcx
	setb	%al
	testb	$1, %al
	jne	.LBB111_1
	jmp	.LBB111_2
.LBB111_1:
	movq	56(%rsp), %rax
	movq	64(%rsp), %rcx
	imulq	$24, %rcx, %rcx
	addq	%rcx, %rax
	addq	$72, %rsp
	retq
.LBB111_2:
	movq	40(%rsp), %r8
	movq	48(%rsp), %rdx
	movq	64(%rsp), %rcx
	callq	_ZN4core9panicking18panic_bounds_check17h08e99065497f24e2E
	ud2
	.seh_endproc

	.def	_ZN77_$LT$alloc..raw_vec..RawVec$LT$T$C$A$GT$$u20$as$u20$core..ops..drop..Drop$GT$4drop17h55205db2393db71dE;
	.scl	3;
	.type	32;
	.endef
	.section	.text,"xr",one_only,_ZN77_$LT$alloc..raw_vec..RawVec$LT$T$C$A$GT$$u20$as$u20$core..ops..drop..Drop$GT$4drop17h55205db2393db71dE
	.p2align	4, 0x90
_ZN77_$LT$alloc..raw_vec..RawVec$LT$T$C$A$GT$$u20$as$u20$core..ops..drop..Drop$GT$4drop17h55205db2393db71dE:
.seh_proc _ZN77_$LT$alloc..raw_vec..RawVec$LT$T$C$A$GT$$u20$as$u20$core..ops..drop..Drop$GT$4drop17h55205db2393db71dE
	subq	$72, %rsp
	.seh_stackalloc 72
	.seh_endprologue
	movq	%rcx, %rdx
	movq	%rdx, 40(%rsp)
	leaq	48(%rsp), %rcx
	callq	_ZN5alloc7raw_vec19RawVec$LT$T$C$A$GT$14current_memory17h756f5a01fd5c919dE
	movl	$1, %eax
	xorl	%ecx, %ecx
	cmpq	$0, 56(%rsp)
	cmoveq	%rcx, %rax
	cmpq	$1, %rax
	jne	.LBB112_2
	movq	40(%rsp), %rcx
	movq	48(%rsp), %rdx
	movq	56(%rsp), %r8
	movq	64(%rsp), %r9
	callq	_ZN63_$LT$alloc..alloc..Global$u20$as$u20$core..alloc..Allocator$GT$10deallocate17h3abe40701abeea38E
.LBB112_2:
	nop
	addq	$72, %rsp
	retq
	.seh_endproc

	.def	_ZN77_$LT$alloc..raw_vec..RawVec$LT$T$C$A$GT$$u20$as$u20$core..ops..drop..Drop$GT$4drop17h8731243e8d5c3860E;
	.scl	3;
	.type	32;
	.endef
	.section	.text,"xr",one_only,_ZN77_$LT$alloc..raw_vec..RawVec$LT$T$C$A$GT$$u20$as$u20$core..ops..drop..Drop$GT$4drop17h8731243e8d5c3860E
	.p2align	4, 0x90
_ZN77_$LT$alloc..raw_vec..RawVec$LT$T$C$A$GT$$u20$as$u20$core..ops..drop..Drop$GT$4drop17h8731243e8d5c3860E:
.seh_proc _ZN77_$LT$alloc..raw_vec..RawVec$LT$T$C$A$GT$$u20$as$u20$core..ops..drop..Drop$GT$4drop17h8731243e8d5c3860E
	subq	$72, %rsp
	.seh_stackalloc 72
	.seh_endprologue
	movq	%rcx, %rdx
	movq	%rdx, 40(%rsp)
	leaq	48(%rsp), %rcx
	callq	_ZN5alloc7raw_vec19RawVec$LT$T$C$A$GT$14current_memory17h53de2ff81bb121c6E
	movl	$1, %eax
	xorl	%ecx, %ecx
	cmpq	$0, 56(%rsp)
	cmoveq	%rcx, %rax
	cmpq	$1, %rax
	jne	.LBB113_2
	movq	40(%rsp), %rcx
	movq	48(%rsp), %rdx
	movq	56(%rsp), %r8
	movq	64(%rsp), %r9
	callq	_ZN63_$LT$alloc..alloc..Global$u20$as$u20$core..alloc..Allocator$GT$10deallocate17h3abe40701abeea38E
.LBB113_2:
	nop
	addq	$72, %rsp
	retq
	.seh_endproc

	.def	_ZN77_$LT$alloc..raw_vec..RawVec$LT$T$C$A$GT$$u20$as$u20$core..ops..drop..Drop$GT$4drop17ha4ab6b0b19e96623E;
	.scl	3;
	.type	32;
	.endef
	.section	.text,"xr",one_only,_ZN77_$LT$alloc..raw_vec..RawVec$LT$T$C$A$GT$$u20$as$u20$core..ops..drop..Drop$GT$4drop17ha4ab6b0b19e96623E
	.p2align	4, 0x90
_ZN77_$LT$alloc..raw_vec..RawVec$LT$T$C$A$GT$$u20$as$u20$core..ops..drop..Drop$GT$4drop17ha4ab6b0b19e96623E:
.seh_proc _ZN77_$LT$alloc..raw_vec..RawVec$LT$T$C$A$GT$$u20$as$u20$core..ops..drop..Drop$GT$4drop17ha4ab6b0b19e96623E
	subq	$72, %rsp
	.seh_stackalloc 72
	.seh_endprologue
	movq	%rcx, %rdx
	movq	%rdx, 40(%rsp)
	leaq	48(%rsp), %rcx
	callq	_ZN5alloc7raw_vec19RawVec$LT$T$C$A$GT$14current_memory17h48a6ef0179852357E
	movl	$1, %eax
	xorl	%ecx, %ecx
	cmpq	$0, 56(%rsp)
	cmoveq	%rcx, %rax
	cmpq	$1, %rax
	jne	.LBB114_2
	movq	40(%rsp), %rcx
	movq	48(%rsp), %rdx
	movq	56(%rsp), %r8
	movq	64(%rsp), %r9
	callq	_ZN63_$LT$alloc..alloc..Global$u20$as$u20$core..alloc..Allocator$GT$10deallocate17h3abe40701abeea38E
.LBB114_2:
	nop
	addq	$72, %rsp
	retq
	.seh_endproc

	.def	_ZN80_$LT$core..str..pattern..StrSearcher$u20$as$u20$core..str..pattern..Searcher$GT$10next_match17h560879b18e6428b3E;
	.scl	3;
	.type	32;
	.endef
	.section	.text,"xr",one_only,_ZN80_$LT$core..str..pattern..StrSearcher$u20$as$u20$core..str..pattern..Searcher$GT$10next_match17h560879b18e6428b3E
	.p2align	4, 0x90
_ZN80_$LT$core..str..pattern..StrSearcher$u20$as$u20$core..str..pattern..Searcher$GT$10next_match17h560879b18e6428b3E:
.seh_proc _ZN80_$LT$core..str..pattern..StrSearcher$u20$as$u20$core..str..pattern..Searcher$GT$10next_match17h560879b18e6428b3E
	subq	$136, %rsp
	.seh_stackalloc 136
	.seh_endprologue
	movq	%rdx, 72(%rsp)
	movq	%rcx, 80(%rsp)
	movq	%rcx, 88(%rsp)
	cmpq	$0, (%rdx)
	jne	.LBB115_2
.LBB115_1:
	movq	72(%rsp), %rdx
	leaq	96(%rsp), %rcx
	callq	_ZN80_$LT$core..str..pattern..StrSearcher$u20$as$u20$core..str..pattern..Searcher$GT$4next17h5579e4f17ccaf575E
	movq	96(%rsp), %rax
	movq	%rax, 64(%rsp)
	testq	%rax, %rax
	je	.LBB115_7
	jmp	.LBB115_11
.LBB115_11:
	movq	64(%rsp), %rax
	subq	$1, %rax
	je	.LBB115_8
	jmp	.LBB115_12
.LBB115_12:
	jmp	.LBB115_9
.LBB115_2:
	movq	72(%rsp), %rax
	movq	%rax, %rcx
	addq	$8, %rcx
	movq	%rcx, 56(%rsp)
	cmpq	$-1, 56(%rax)
	je	.LBB115_4
	movq	56(%rsp), %rdx
	movq	80(%rsp), %rcx
	movq	72(%rsp), %rax
	movq	72(%rax), %r8
	movq	80(%rax), %r9
	movq	88(%rax), %r10
	movq	96(%rax), %rax
	xorl	%r11d, %r11d
	movq	%r10, 32(%rsp)
	movq	%rax, 40(%rsp)
	movl	$0, 48(%rsp)
	callq	_ZN4core3str7pattern14TwoWaySearcher4next17hc0aa6b46eb03fbecE
	jmp	.LBB115_5
.LBB115_4:
	movq	56(%rsp), %rdx
	movq	80(%rsp), %rcx
	movq	72(%rsp), %rax
	movq	72(%rax), %r8
	movq	80(%rax), %r9
	movq	88(%rax), %r10
	movq	96(%rax), %rax
	movq	%r10, 32(%rsp)
	movq	%rax, 40(%rsp)
	movl	$1, 48(%rsp)
	callq	_ZN4core3str7pattern14TwoWaySearcher4next17hc0aa6b46eb03fbecE
.LBB115_5:
	movq	88(%rsp), %rax
	addq	$136, %rsp
	retq
	ud2
.LBB115_7:
	movq	80(%rsp), %rax
	movq	104(%rsp), %rdx
	movq	112(%rsp), %rcx
	movq	%rdx, 120(%rsp)
	movq	%rcx, 128(%rsp)
	movq	120(%rsp), %rdx
	movq	128(%rsp), %rcx
	movq	%rdx, 8(%rax)
	movq	%rcx, 16(%rax)
	movq	$1, (%rax)
	jmp	.LBB115_10
.LBB115_8:
	jmp	.LBB115_1
.LBB115_9:
	movq	80(%rsp), %rax
	movq	$0, (%rax)
.LBB115_10:
	jmp	.LBB115_5
	.seh_endproc

	.def	_ZN80_$LT$core..str..pattern..StrSearcher$u20$as$u20$core..str..pattern..Searcher$GT$4next17h5579e4f17ccaf575E;
	.scl	3;
	.type	32;
	.endef
	.section	.text,"xr",one_only,_ZN80_$LT$core..str..pattern..StrSearcher$u20$as$u20$core..str..pattern..Searcher$GT$4next17h5579e4f17ccaf575E
	.p2align	4, 0x90
_ZN80_$LT$core..str..pattern..StrSearcher$u20$as$u20$core..str..pattern..Searcher$GT$4next17h5579e4f17ccaf575E:
.seh_proc _ZN80_$LT$core..str..pattern..StrSearcher$u20$as$u20$core..str..pattern..Searcher$GT$4next17h5579e4f17ccaf575E
	subq	$264, %rsp
	.seh_stackalloc 264
	.seh_endprologue
	movq	%rdx, 104(%rsp)
	movq	%rcx, 112(%rsp)
	movq	%rcx, 120(%rsp)
	cmpq	$0, (%rdx)
	jne	.LBB116_2
	movq	104(%rsp), %rax
	movq	%rax, %rcx
	addq	$8, %rcx
	movq	%rcx, 96(%rsp)
	testb	$1, 26(%rax)
	jne	.LBB116_13
	jmp	.LBB116_12
.LBB116_2:
	movq	104(%rsp), %rcx
	movq	%rcx, %rax
	addq	$8, %rax
	movq	%rax, 88(%rsp)
	movq	40(%rcx), %rax
	cmpq	80(%rcx), %rax
	je	.LBB116_4
	movq	88(%rsp), %rdx
	movq	104(%rsp), %rax
	cmpq	$-1, 48(%rdx)
	sete	%r11b
	movq	72(%rax), %r8
	movq	80(%rax), %r9
	movq	88(%rax), %rcx
	movq	96(%rax), %r10
	andb	$1, %r11b
	movq	%rsp, %rax
	movb	%r11b, 48(%rax)
	movq	%r10, 40(%rax)
	movq	%rcx, 32(%rax)
	leaq	168(%rsp), %rcx
	callq	_ZN4core3str7pattern14TwoWaySearcher4next17hb042af6049726ab1E
	cmpq	$1, 168(%rsp)
	je	.LBB116_6
	jmp	.LBB116_7
.LBB116_4:
	movq	112(%rsp), %rax
	movq	$2, (%rax)
.LBB116_5:
	movq	120(%rsp), %rax
	addq	$264, %rsp
	retq
.LBB116_6:
	movq	176(%rsp), %rax
	movq	%rax, 80(%rsp)
	movq	184(%rsp), %rax
	movq	%rax, 192(%rsp)
	jmp	.LBB116_9
.LBB116_7:
	movq	112(%rsp), %rax
	movq	168(%rsp), %rcx
	movq	%rcx, 200(%rsp)
	movq	176(%rsp), %rcx
	movq	%rcx, 208(%rsp)
	movq	184(%rsp), %rcx
	movq	%rcx, 216(%rsp)
	movq	200(%rsp), %rcx
	movq	%rcx, (%rax)
	movq	208(%rsp), %rcx
	movq	%rcx, 8(%rax)
	movq	216(%rsp), %rcx
	movq	%rcx, 16(%rax)
.LBB116_8:
	jmp	.LBB116_5
.LBB116_9:
	movq	104(%rsp), %rax
	movq	72(%rax), %rcx
	movq	80(%rax), %rdx
	movq	192(%rsp), %r8
	callq	_ZN4core3str21_$LT$impl$u20$str$GT$16is_char_boundary17h46328c4e80c37937E
	xorb	$-1, %al
	testb	$1, %al
	jne	.LBB116_11
	movq	88(%rsp), %rax
	movq	192(%rsp), %rcx
	movq	32(%rax), %rdx
	callq	_ZN4core3cmp6max_by17h118efc92c3261ec2E
	movq	88(%rsp), %rcx
	movq	80(%rsp), %rdx
	movq	%rax, %r8
	movq	112(%rsp), %rax
	movq	%r8, 32(%rcx)
	movq	192(%rsp), %rcx
	movq	%rdx, 8(%rax)
	movq	%rcx, 16(%rax)
	movq	$1, (%rax)
	jmp	.LBB116_8
.LBB116_11:
	movq	192(%rsp), %rax
	addq	$1, %rax
	movq	%rax, 192(%rsp)
	jmp	.LBB116_9
.LBB116_12:
	movq	104(%rsp), %rcx
	movq	96(%rsp), %rax
	movb	16(%rax), %dl
	movb	%dl, 71(%rsp)
	xorb	$1, %dl
	movb	%dl, 16(%rax)
	movq	(%rax), %rax
	movq	%rax, 72(%rsp)
	movq	72(%rcx), %rdx
	movq	80(%rcx), %r8
	movq	%rax, 152(%rsp)
	movq	152(%rsp), %rcx
	leaq	__unnamed_22(%rip), %r9
	callq	_ZN4core3str6traits112_$LT$impl$u20$core..slice..index..SliceIndex$LT$str$GT$$u20$for$u20$core..ops..range..RangeFrom$LT$usize$GT$$GT$5index17h90f3dea97ae3cf30E
	movq	%rax, %rcx
	movq	%rcx, %rax
	addq	%rdx, %rax
	movq	%rcx, 240(%rsp)
	movq	240(%rsp), %rcx
	movq	%rcx, 224(%rsp)
	movq	%rax, 232(%rsp)
	movq	224(%rsp), %rcx
	movq	232(%rsp), %rax
	movq	%rcx, 136(%rsp)
	movq	%rax, 144(%rsp)
	leaq	136(%rsp), %rcx
	callq	_ZN4core3str11validations15next_code_point17h99066f8c2695e172E
	movl	%edx, 252(%rsp)
	movl	%eax, 248(%rsp)
	movl	248(%rsp), %eax
	cmpq	$0, %rax
	je	.LBB116_14
	jmp	.LBB116_15
.LBB116_13:
	movq	112(%rsp), %rax
	movq	$2, (%rax)
	jmp	.LBB116_5
.LBB116_14:
	movl	$1114112, 132(%rsp)
	jmp	.LBB116_16
.LBB116_15:
	movl	252(%rsp), %eax
	movl	%eax, 260(%rsp)
	movl	260(%rsp), %eax
	movl	%eax, 132(%rsp)
.LBB116_16:
	movb	71(%rsp), %al
	testb	$1, %al
	jne	.LBB116_18
	jmp	.LBB116_17
.LBB116_17:
	movl	$1, %eax
	xorl	%ecx, %ecx
	cmpl	$1114112, 132(%rsp)
	cmoveq	%rcx, %rax
	cmpq	$0, %rax
	je	.LBB116_20
	jmp	.LBB116_21
.LBB116_18:
	movq	112(%rsp), %rax
	movq	72(%rsp), %rcx
	movq	%rcx, 8(%rax)
	movq	%rcx, 16(%rax)
	movq	$0, (%rax)
.LBB116_19:
	jmp	.LBB116_5
.LBB116_20:
	movq	112(%rsp), %rax
	movq	96(%rsp), %rcx
	movb	$1, 18(%rcx)
	movq	$2, (%rax)
	jmp	.LBB116_19
.LBB116_21:
	movl	132(%rsp), %eax
	movl	%eax, 64(%rsp)
	cmpl	$128, %eax
	jb	.LBB116_23
	movl	64(%rsp), %eax
	cmpl	$2048, %eax
	jb	.LBB116_26
	jmp	.LBB116_25
.LBB116_23:
	movq	$1, 160(%rsp)
.LBB116_24:
	movq	112(%rsp), %rax
	movq	72(%rsp), %rdx
	movq	96(%rsp), %rcx
	movq	(%rcx), %r8
	addq	160(%rsp), %r8
	movq	%r8, (%rcx)
	movq	(%rcx), %rcx
	movq	%rdx, 8(%rax)
	movq	%rcx, 16(%rax)
	movq	$1, (%rax)
	jmp	.LBB116_19
.LBB116_25:
	movl	64(%rsp), %eax
	cmpl	$65536, %eax
	jb	.LBB116_29
	jmp	.LBB116_28
.LBB116_26:
	movq	$2, 160(%rsp)
.LBB116_27:
	jmp	.LBB116_24
.LBB116_28:
	movq	$4, 160(%rsp)
	jmp	.LBB116_30
.LBB116_29:
	movq	$3, 160(%rsp)
.LBB116_30:
	jmp	.LBB116_27
	.seh_endproc

	.def	_ZN80_$LT$core..str..pattern..StrSearcher$u20$as$u20$core..str..pattern..Searcher$GT$8haystack17h3ebeb190a1fef65eE;
	.scl	3;
	.type	32;
	.endef
	.section	.text,"xr",one_only,_ZN80_$LT$core..str..pattern..StrSearcher$u20$as$u20$core..str..pattern..Searcher$GT$8haystack17h3ebeb190a1fef65eE
	.p2align	4, 0x90
_ZN80_$LT$core..str..pattern..StrSearcher$u20$as$u20$core..str..pattern..Searcher$GT$8haystack17h3ebeb190a1fef65eE:
	movq	72(%rcx), %rax
	movq	80(%rcx), %rdx
	retq

	.def	_ZN81_$LT$alloc..vec..Vec$LT$T$C$A$GT$$u20$as$u20$core..ops..index..Index$LT$I$GT$$GT$5index17he3c29c60484e7f33E;
	.scl	3;
	.type	32;
	.endef
	.section	.text,"xr",one_only,_ZN81_$LT$alloc..vec..Vec$LT$T$C$A$GT$$u20$as$u20$core..ops..index..Index$LT$I$GT$$GT$5index17he3c29c60484e7f33E
	.p2align	4, 0x90
_ZN81_$LT$alloc..vec..Vec$LT$T$C$A$GT$$u20$as$u20$core..ops..index..Index$LT$I$GT$$GT$5index17he3c29c60484e7f33E:
.Lfunc_begin18:
.seh_proc _ZN81_$LT$alloc..vec..Vec$LT$T$C$A$GT$$u20$as$u20$core..ops..index..Index$LT$I$GT$$GT$5index17he3c29c60484e7f33E
	.seh_handler __CxxFrameHandler3, @unwind, @except
	pushq	%rbp
	.seh_pushreg %rbp
	subq	$96, %rsp
	.seh_stackalloc 96
	leaq	96(%rsp), %rbp
	.seh_setframe %rbp, 96
	.seh_endprologue
	movq	$-2, -8(%rbp)
	movq	%r8, %r9
	movq	%rdx, -56(%rbp)
	movq	%rcx, %rax
	movq	-56(%rbp), %rcx
	movq	(%rax), %rdx
	movq	16(%rax), %rax
	movq	%rdx, -24(%rbp)
	movq	%rax, -16(%rbp)
	movq	-24(%rbp), %rdx
	movq	-16(%rbp), %rax
	movq	%rdx, -40(%rbp)
	movq	%rax, -32(%rbp)
	movq	-40(%rbp), %rdx
	movq	-32(%rbp), %r8
.Ltmp74:
	callq	_ZN75_$LT$usize$u20$as$u20$core..slice..index..SliceIndex$LT$$u5b$T$u5d$$GT$$GT$5index17hf26b4a918e70127bE
.Ltmp75:
	movq	%rax, -48(%rbp)
	jmp	.LBB118_2
.LBB118_2:
	movq	-48(%rbp), %rax
	addq	$96, %rsp
	popq	%rbp
	retq
	.seh_handlerdata
	.long	($cppxdata$_ZN81_$LT$alloc..vec..Vec$LT$T$C$A$GT$$u20$as$u20$core..ops..index..Index$LT$I$GT$$GT$5index17he3c29c60484e7f33E)@IMGREL
	.section	.text,"xr",one_only,_ZN81_$LT$alloc..vec..Vec$LT$T$C$A$GT$$u20$as$u20$core..ops..index..Index$LT$I$GT$$GT$5index17he3c29c60484e7f33E
	.seh_endproc
	.def	"?dtor$1@?0?_ZN81_$LT$alloc..vec..Vec$LT$T$C$A$GT$$u20$as$u20$core..ops..index..Index$LT$I$GT$$GT$5index17he3c29c60484e7f33E@4HA";
	.scl	3;
	.type	32;
	.endef
	.p2align	4, 0x90
"?dtor$1@?0?_ZN81_$LT$alloc..vec..Vec$LT$T$C$A$GT$$u20$as$u20$core..ops..index..Index$LT$I$GT$$GT$5index17he3c29c60484e7f33E@4HA":
.seh_proc "?dtor$1@?0?_ZN81_$LT$alloc..vec..Vec$LT$T$C$A$GT$$u20$as$u20$core..ops..index..Index$LT$I$GT$$GT$5index17he3c29c60484e7f33E@4HA"
.LBB118_1:
	movq	%rdx, 16(%rsp)
	pushq	%rbp
	.seh_pushreg %rbp
	subq	$32, %rsp
	.seh_stackalloc 32
	leaq	96(%rdx), %rbp
	.seh_endprologue
	addq	$32, %rsp
	popq	%rbp
	retq
.Lfunc_end18:
	.seh_handlerdata
	.section	.text,"xr",one_only,_ZN81_$LT$alloc..vec..Vec$LT$T$C$A$GT$$u20$as$u20$core..ops..index..Index$LT$I$GT$$GT$5index17he3c29c60484e7f33E
	.seh_endproc
	.section	.xdata,"dr",associative,_ZN81_$LT$alloc..vec..Vec$LT$T$C$A$GT$$u20$as$u20$core..ops..index..Index$LT$I$GT$$GT$5index17he3c29c60484e7f33E
	.p2align	2, 0x0
$cppxdata$_ZN81_$LT$alloc..vec..Vec$LT$T$C$A$GT$$u20$as$u20$core..ops..index..Index$LT$I$GT$$GT$5index17he3c29c60484e7f33E:
	.long	429065506
	.long	1
	.long	($stateUnwindMap$_ZN81_$LT$alloc..vec..Vec$LT$T$C$A$GT$$u20$as$u20$core..ops..index..Index$LT$I$GT$$GT$5index17he3c29c60484e7f33E)@IMGREL
	.long	0
	.long	0
	.long	3
	.long	($ip2state$_ZN81_$LT$alloc..vec..Vec$LT$T$C$A$GT$$u20$as$u20$core..ops..index..Index$LT$I$GT$$GT$5index17he3c29c60484e7f33E)@IMGREL
	.long	88
	.long	0
	.long	1
$stateUnwindMap$_ZN81_$LT$alloc..vec..Vec$LT$T$C$A$GT$$u20$as$u20$core..ops..index..Index$LT$I$GT$$GT$5index17he3c29c60484e7f33E:
	.long	-1
	.long	"?dtor$1@?0?_ZN81_$LT$alloc..vec..Vec$LT$T$C$A$GT$$u20$as$u20$core..ops..index..Index$LT$I$GT$$GT$5index17he3c29c60484e7f33E@4HA"@IMGREL
$ip2state$_ZN81_$LT$alloc..vec..Vec$LT$T$C$A$GT$$u20$as$u20$core..ops..index..Index$LT$I$GT$$GT$5index17he3c29c60484e7f33E:
	.long	.Lfunc_begin18@IMGREL
	.long	-1
	.long	.Ltmp74@IMGREL+1
	.long	0
	.long	.Ltmp75@IMGREL+1
	.long	-1
	.section	.text,"xr",one_only,_ZN81_$LT$alloc..vec..Vec$LT$T$C$A$GT$$u20$as$u20$core..ops..index..Index$LT$I$GT$$GT$5index17he3c29c60484e7f33E

	.def	_ZN84_$LT$core..str..pattern..MatchOnly$u20$as$u20$core..str..pattern..TwoWayStrategy$GT$16use_early_reject17h17bf4d86fd1b7371E;
	.scl	3;
	.type	32;
	.endef
	.section	.text,"xr",one_only,_ZN84_$LT$core..str..pattern..MatchOnly$u20$as$u20$core..str..pattern..TwoWayStrategy$GT$16use_early_reject17h17bf4d86fd1b7371E
	.p2align	4, 0x90
_ZN84_$LT$core..str..pattern..MatchOnly$u20$as$u20$core..str..pattern..TwoWayStrategy$GT$16use_early_reject17h17bf4d86fd1b7371E:
	xorl	%eax, %eax
	andb	$1, %al
	movzbl	%al, %eax
	retq

	.def	_ZN84_$LT$core..str..pattern..MatchOnly$u20$as$u20$core..str..pattern..TwoWayStrategy$GT$8matching17h0f55d3a92c46beabE;
	.scl	3;
	.type	32;
	.endef
	.section	.text,"xr",one_only,_ZN84_$LT$core..str..pattern..MatchOnly$u20$as$u20$core..str..pattern..TwoWayStrategy$GT$8matching17h0f55d3a92c46beabE
	.p2align	4, 0x90
_ZN84_$LT$core..str..pattern..MatchOnly$u20$as$u20$core..str..pattern..TwoWayStrategy$GT$8matching17h0f55d3a92c46beabE:
.seh_proc _ZN84_$LT$core..str..pattern..MatchOnly$u20$as$u20$core..str..pattern..TwoWayStrategy$GT$8matching17h0f55d3a92c46beabE
	subq	$16, %rsp
	.seh_stackalloc 16
	.seh_endprologue
	movq	%rcx, %rax
	movq	%rdx, (%rsp)
	movq	%r8, 8(%rsp)
	movq	(%rsp), %r8
	movq	8(%rsp), %rdx
	movq	%r8, 8(%rcx)
	movq	%rdx, 16(%rcx)
	movq	$1, (%rcx)
	addq	$16, %rsp
	retq
	.seh_endproc

	.def	_ZN84_$LT$core..str..pattern..MatchOnly$u20$as$u20$core..str..pattern..TwoWayStrategy$GT$9rejecting17hf5a7dba7666c8a29E;
	.scl	3;
	.type	32;
	.endef
	.section	.text,"xr",one_only,_ZN84_$LT$core..str..pattern..MatchOnly$u20$as$u20$core..str..pattern..TwoWayStrategy$GT$9rejecting17hf5a7dba7666c8a29E
	.p2align	4, 0x90
_ZN84_$LT$core..str..pattern..MatchOnly$u20$as$u20$core..str..pattern..TwoWayStrategy$GT$9rejecting17hf5a7dba7666c8a29E:
	movq	%rcx, %rax
	movq	$0, (%rcx)
	retq

	.def	_ZN86_$LT$alloc..vec..into_iter..IntoIter$LT$T$C$A$GT$$u20$as$u20$core..ops..drop..Drop$GT$4drop17hfc831a621a2f2292E;
	.scl	3;
	.type	32;
	.endef
	.section	.text,"xr",one_only,_ZN86_$LT$alloc..vec..into_iter..IntoIter$LT$T$C$A$GT$$u20$as$u20$core..ops..drop..Drop$GT$4drop17hfc831a621a2f2292E
	.p2align	4, 0x90
_ZN86_$LT$alloc..vec..into_iter..IntoIter$LT$T$C$A$GT$$u20$as$u20$core..ops..drop..Drop$GT$4drop17hfc831a621a2f2292E:
.Lfunc_begin19:
.seh_proc _ZN86_$LT$alloc..vec..into_iter..IntoIter$LT$T$C$A$GT$$u20$as$u20$core..ops..drop..Drop$GT$4drop17hfc831a621a2f2292E
	.seh_handler __CxxFrameHandler3, @unwind, @except
	pushq	%rbp
	.seh_pushreg %rbp
	subq	$64, %rsp
	.seh_stackalloc 64
	leaq	64(%rsp), %rbp
	.seh_setframe %rbp, 64
	.seh_endprologue
	movq	$-2, -8(%rbp)
	movq	%rcx, -16(%rbp)
	movq	-16(%rbp), %rcx
.Ltmp76:
	callq	_ZN5alloc3vec9into_iter21IntoIter$LT$T$C$A$GT$16as_raw_mut_slice17h826c4917e8c24f43E
.Ltmp77:
	movq	%rdx, -32(%rbp)
	movq	%rax, -24(%rbp)
	jmp	.LBB122_2
.LBB122_2:
.Ltmp78:
	movq	-32(%rbp), %rdx
	movq	-24(%rbp), %rcx
	callq	_ZN4core3ptr57drop_in_place$LT$$u5b$std..ffi..os_str..OsString$u5d$$GT$17h71ea883d3edc3d89E
.Ltmp79:
	jmp	.LBB122_3
.LBB122_3:
	leaq	-16(%rbp), %rcx
	callq	_ZN4core3ptr180drop_in_place$LT$$LT$alloc..vec..into_iter..IntoIter$LT$T$C$A$GT$$u20$as$u20$core..ops..drop..Drop$GT$..drop..DropGuard$LT$std..ffi..os_str..OsString$C$alloc..alloc..Global$GT$$GT$17h271ef94d1e0fc6e9E
	nop
	addq	$64, %rsp
	popq	%rbp
	retq
	.seh_handlerdata
	.long	($cppxdata$_ZN86_$LT$alloc..vec..into_iter..IntoIter$LT$T$C$A$GT$$u20$as$u20$core..ops..drop..Drop$GT$4drop17hfc831a621a2f2292E)@IMGREL
	.section	.text,"xr",one_only,_ZN86_$LT$alloc..vec..into_iter..IntoIter$LT$T$C$A$GT$$u20$as$u20$core..ops..drop..Drop$GT$4drop17hfc831a621a2f2292E
	.seh_endproc
	.def	"?dtor$1@?0?_ZN86_$LT$alloc..vec..into_iter..IntoIter$LT$T$C$A$GT$$u20$as$u20$core..ops..drop..Drop$GT$4drop17hfc831a621a2f2292E@4HA";
	.scl	3;
	.type	32;
	.endef
	.p2align	4, 0x90
"?dtor$1@?0?_ZN86_$LT$alloc..vec..into_iter..IntoIter$LT$T$C$A$GT$$u20$as$u20$core..ops..drop..Drop$GT$4drop17hfc831a621a2f2292E@4HA":
.seh_proc "?dtor$1@?0?_ZN86_$LT$alloc..vec..into_iter..IntoIter$LT$T$C$A$GT$$u20$as$u20$core..ops..drop..Drop$GT$4drop17hfc831a621a2f2292E@4HA"
.LBB122_1:
	movq	%rdx, 16(%rsp)
	pushq	%rbp
	.seh_pushreg %rbp
	subq	$32, %rsp
	.seh_stackalloc 32
	leaq	64(%rdx), %rbp
	.seh_endprologue
	leaq	-16(%rbp), %rcx
	callq	_ZN4core3ptr180drop_in_place$LT$$LT$alloc..vec..into_iter..IntoIter$LT$T$C$A$GT$$u20$as$u20$core..ops..drop..Drop$GT$..drop..DropGuard$LT$std..ffi..os_str..OsString$C$alloc..alloc..Global$GT$$GT$17h271ef94d1e0fc6e9E
	nop
	addq	$32, %rsp
	popq	%rbp
	retq
.Lfunc_end19:
	.seh_handlerdata
	.section	.text,"xr",one_only,_ZN86_$LT$alloc..vec..into_iter..IntoIter$LT$T$C$A$GT$$u20$as$u20$core..ops..drop..Drop$GT$4drop17hfc831a621a2f2292E
	.seh_endproc
	.section	.xdata,"dr",associative,_ZN86_$LT$alloc..vec..into_iter..IntoIter$LT$T$C$A$GT$$u20$as$u20$core..ops..drop..Drop$GT$4drop17hfc831a621a2f2292E
	.p2align	2, 0x0
$cppxdata$_ZN86_$LT$alloc..vec..into_iter..IntoIter$LT$T$C$A$GT$$u20$as$u20$core..ops..drop..Drop$GT$4drop17hfc831a621a2f2292E:
	.long	429065506
	.long	1
	.long	($stateUnwindMap$_ZN86_$LT$alloc..vec..into_iter..IntoIter$LT$T$C$A$GT$$u20$as$u20$core..ops..drop..Drop$GT$4drop17hfc831a621a2f2292E)@IMGREL
	.long	0
	.long	0
	.long	3
	.long	($ip2state$_ZN86_$LT$alloc..vec..into_iter..IntoIter$LT$T$C$A$GT$$u20$as$u20$core..ops..drop..Drop$GT$4drop17hfc831a621a2f2292E)@IMGREL
	.long	56
	.long	0
	.long	1
$stateUnwindMap$_ZN86_$LT$alloc..vec..into_iter..IntoIter$LT$T$C$A$GT$$u20$as$u20$core..ops..drop..Drop$GT$4drop17hfc831a621a2f2292E:
	.long	-1
	.long	"?dtor$1@?0?_ZN86_$LT$alloc..vec..into_iter..IntoIter$LT$T$C$A$GT$$u20$as$u20$core..ops..drop..Drop$GT$4drop17hfc831a621a2f2292E@4HA"@IMGREL
$ip2state$_ZN86_$LT$alloc..vec..into_iter..IntoIter$LT$T$C$A$GT$$u20$as$u20$core..ops..drop..Drop$GT$4drop17hfc831a621a2f2292E:
	.long	.Lfunc_begin19@IMGREL
	.long	-1
	.long	.Ltmp76@IMGREL+1
	.long	0
	.long	.Ltmp79@IMGREL+1
	.long	-1
	.section	.text,"xr",one_only,_ZN86_$LT$alloc..vec..into_iter..IntoIter$LT$T$C$A$GT$$u20$as$u20$core..ops..drop..Drop$GT$4drop17hfc831a621a2f2292E

	.def	_ZN89_$LT$core..ops..range..Range$LT$T$GT$$u20$as$u20$core..iter..range..RangeIteratorImpl$GT$14spec_next_back17hc0f1f50c0a519073E;
	.scl	3;
	.type	32;
	.endef
	.section	.text,"xr",one_only,_ZN89_$LT$core..ops..range..Range$LT$T$GT$$u20$as$u20$core..iter..range..RangeIteratorImpl$GT$14spec_next_back17hc0f1f50c0a519073E
	.p2align	4, 0x90
_ZN89_$LT$core..ops..range..Range$LT$T$GT$$u20$as$u20$core..iter..range..RangeIteratorImpl$GT$14spec_next_back17hc0f1f50c0a519073E:
.seh_proc _ZN89_$LT$core..ops..range..Range$LT$T$GT$$u20$as$u20$core..iter..range..RangeIteratorImpl$GT$14spec_next_back17hc0f1f50c0a519073E
	subq	$56, %rsp
	.seh_stackalloc 56
	.seh_endprologue
	movq	%rcx, 32(%rsp)
	movq	(%rcx), %rax
	cmpq	8(%rcx), %rax
	jb	.LBB123_2
	movq	$0, 40(%rsp)
	jmp	.LBB123_3
.LBB123_2:
	movq	32(%rsp), %rax
	movq	8(%rax), %rcx
	movl	$1, %edx
	callq	_ZN49_$LT$usize$u20$as$u20$core..iter..range..Step$GT$18backward_unchecked17hed757b3c770845b8E
	movq	%rax, %rcx
	movq	32(%rsp), %rax
	movq	%rcx, 8(%rax)
	movq	8(%rax), %rax
	movq	%rax, 48(%rsp)
	movq	$1, 40(%rsp)
.LBB123_3:
	movq	40(%rsp), %rax
	movq	48(%rsp), %rdx
	addq	$56, %rsp
	retq
	.seh_endproc

	.def	_ZN89_$LT$core..ops..range..Range$LT$T$GT$$u20$as$u20$core..iter..range..RangeIteratorImpl$GT$9spec_next17h77c9888a9547ed2cE;
	.scl	3;
	.type	32;
	.endef
	.section	.text,"xr",one_only,_ZN89_$LT$core..ops..range..Range$LT$T$GT$$u20$as$u20$core..iter..range..RangeIteratorImpl$GT$9spec_next17h77c9888a9547ed2cE
	.p2align	4, 0x90
_ZN89_$LT$core..ops..range..Range$LT$T$GT$$u20$as$u20$core..iter..range..RangeIteratorImpl$GT$9spec_next17h77c9888a9547ed2cE:
.seh_proc _ZN89_$LT$core..ops..range..Range$LT$T$GT$$u20$as$u20$core..iter..range..RangeIteratorImpl$GT$9spec_next17h77c9888a9547ed2cE
	subq	$56, %rsp
	.seh_stackalloc 56
	.seh_endprologue
	movq	%rcx, 32(%rsp)
	movq	(%rcx), %rax
	cmpq	8(%rcx), %rax
	jb	.LBB124_2
	movq	$0, 40(%rsp)
	jmp	.LBB124_3
.LBB124_2:
	movq	32(%rsp), %rax
	movq	(%rax), %rcx
	movl	$1, %edx
	callq	_ZN49_$LT$usize$u20$as$u20$core..iter..range..Step$GT$17forward_unchecked17h75c924a11361ad9eE
	movq	32(%rsp), %rcx
	movq	%rax, %rdx
	movq	(%rcx), %rax
	movq	%rdx, (%rcx)
	movq	%rax, 48(%rsp)
	movq	$1, 40(%rsp)
.LBB124_3:
	movq	40(%rsp), %rax
	movq	48(%rsp), %rdx
	addq	$56, %rsp
	retq
	.seh_endproc

	.def	_ZN89_$LT$core..ops..range..Range$LT$T$GT$$u20$as$u20$core..iter..range..RangeIteratorImpl$GT$9spec_next17h9f2a91ad2365ce4aE;
	.scl	3;
	.type	32;
	.endef
	.section	.text,"xr",one_only,_ZN89_$LT$core..ops..range..Range$LT$T$GT$$u20$as$u20$core..iter..range..RangeIteratorImpl$GT$9spec_next17h9f2a91ad2365ce4aE
	.p2align	4, 0x90
_ZN89_$LT$core..ops..range..Range$LT$T$GT$$u20$as$u20$core..iter..range..RangeIteratorImpl$GT$9spec_next17h9f2a91ad2365ce4aE:
.seh_proc _ZN89_$LT$core..ops..range..Range$LT$T$GT$$u20$as$u20$core..iter..range..RangeIteratorImpl$GT$9spec_next17h9f2a91ad2365ce4aE
	subq	$56, %rsp
	.seh_stackalloc 56
	.seh_endprologue
	movq	%rcx, 40(%rsp)
	movl	(%rcx), %eax
	cmpl	4(%rcx), %eax
	jl	.LBB125_2
	movl	$0, 48(%rsp)
	jmp	.LBB125_3
.LBB125_2:
	movq	40(%rsp), %rax
	movl	(%rax), %ecx
	movl	$1, %edx
	callq	_ZN47_$LT$i32$u20$as$u20$core..iter..range..Step$GT$17forward_unchecked17h1df008eb2b579910E
	movq	40(%rsp), %rcx
	movl	%eax, %edx
	movl	(%rcx), %eax
	movl	%edx, (%rcx)
	movl	%eax, 52(%rsp)
	movl	$1, 48(%rsp)
.LBB125_3:
	movl	48(%rsp), %eax
	movl	52(%rsp), %edx
	addq	$56, %rsp
	retq
	.seh_endproc

	.def	_ZN89_$LT$core..ops..range..Range$LT$T$GT$$u20$as$u20$core..iter..range..RangeIteratorImpl$GT$9spec_next17hcd2fd9aa9c7ac92bE;
	.scl	3;
	.type	32;
	.endef
	.section	.text,"xr",one_only,_ZN89_$LT$core..ops..range..Range$LT$T$GT$$u20$as$u20$core..iter..range..RangeIteratorImpl$GT$9spec_next17hcd2fd9aa9c7ac92bE
	.p2align	4, 0x90
_ZN89_$LT$core..ops..range..Range$LT$T$GT$$u20$as$u20$core..iter..range..RangeIteratorImpl$GT$9spec_next17hcd2fd9aa9c7ac92bE:
.seh_proc _ZN89_$LT$core..ops..range..Range$LT$T$GT$$u20$as$u20$core..iter..range..RangeIteratorImpl$GT$9spec_next17hcd2fd9aa9c7ac92bE
	subq	$72, %rsp
	.seh_stackalloc 72
	.seh_endprologue
	movq	%rcx, %r8
	movq	%r8, 40(%rsp)
	movq	(%r8), %rdx
	movq	8(%r8), %rax
	movq	24(%r8), %rcx
	movq	16(%r8), %r8
	subq	%r8, %rdx
	sbbq	%rcx, %rax
	jb	.LBB126_2
	jmp	.LBB126_1
.LBB126_1:
	movq	$0, 48(%rsp)
	jmp	.LBB126_3
.LBB126_2:
	movq	40(%rsp), %rax
	movq	(%rax), %rcx
	movq	8(%rax), %rdx
	movl	$1, %r8d
	callq	_ZN48_$LT$u128$u20$as$u20$core..iter..range..Step$GT$17forward_unchecked17hebb349b6e1cab1b5E
	movq	%rax, %r8
	movq	%rdx, %r9
	movq	40(%rsp), %rdx
	movq	(%rdx), %rax
	movq	8(%rdx), %rcx
	movq	%r9, 8(%rdx)
	movq	%r8, (%rdx)
	movq	%rcx, 64(%rsp)
	movq	%rax, 56(%rsp)
	movq	$1, 48(%rsp)
.LBB126_3:
	movq	48(%rsp), %rax
	movq	56(%rsp), %rdx
	movq	64(%rsp), %rcx
	addq	$72, %rsp
	retq
	.seh_endproc

	.def	_ZN89_$LT$core..str..pattern..RejectAndMatch$u20$as$u20$core..str..pattern..TwoWayStrategy$GT$16use_early_reject17hdb35d0417648a095E;
	.scl	3;
	.type	32;
	.endef
	.section	.text,"xr",one_only,_ZN89_$LT$core..str..pattern..RejectAndMatch$u20$as$u20$core..str..pattern..TwoWayStrategy$GT$16use_early_reject17hdb35d0417648a095E
	.p2align	4, 0x90
_ZN89_$LT$core..str..pattern..RejectAndMatch$u20$as$u20$core..str..pattern..TwoWayStrategy$GT$16use_early_reject17hdb35d0417648a095E:
	movb	$1, %al
	andb	$1, %al
	movzbl	%al, %eax
	retq

	.def	_ZN89_$LT$core..str..pattern..RejectAndMatch$u20$as$u20$core..str..pattern..TwoWayStrategy$GT$8matching17h2c149d784e013259E;
	.scl	3;
	.type	32;
	.endef
	.section	.text,"xr",one_only,_ZN89_$LT$core..str..pattern..RejectAndMatch$u20$as$u20$core..str..pattern..TwoWayStrategy$GT$8matching17h2c149d784e013259E
	.p2align	4, 0x90
_ZN89_$LT$core..str..pattern..RejectAndMatch$u20$as$u20$core..str..pattern..TwoWayStrategy$GT$8matching17h2c149d784e013259E:
	movq	%rcx, %rax
	movq	%rdx, 8(%rcx)
	movq	%r8, 16(%rcx)
	movq	$0, (%rcx)
	retq

	.def	_ZN89_$LT$core..str..pattern..RejectAndMatch$u20$as$u20$core..str..pattern..TwoWayStrategy$GT$9rejecting17hce34498cfdedb333E;
	.scl	3;
	.type	32;
	.endef
	.section	.text,"xr",one_only,_ZN89_$LT$core..str..pattern..RejectAndMatch$u20$as$u20$core..str..pattern..TwoWayStrategy$GT$9rejecting17hce34498cfdedb333E
	.p2align	4, 0x90
_ZN89_$LT$core..str..pattern..RejectAndMatch$u20$as$u20$core..str..pattern..TwoWayStrategy$GT$9rejecting17hce34498cfdedb333E:
	movq	%rcx, %rax
	movq	%rdx, 8(%rcx)
	movq	%r8, 16(%rcx)
	movq	$1, (%rcx)
	retq

	.def	_ZN91_$LT$core..slice..iter..Iter$LT$T$GT$$u20$as$u20$core..iter..traits..iterator..Iterator$GT$4next17ha79d766991ff2561E;
	.scl	3;
	.type	32;
	.endef
	.section	.text,"xr",one_only,_ZN91_$LT$core..slice..iter..Iter$LT$T$GT$$u20$as$u20$core..iter..traits..iterator..Iterator$GT$4next17ha79d766991ff2561E
	.p2align	4, 0x90
_ZN91_$LT$core..slice..iter..Iter$LT$T$GT$$u20$as$u20$core..iter..traits..iterator..Iterator$GT$4next17ha79d766991ff2561E:
.seh_proc _ZN91_$LT$core..slice..iter..Iter$LT$T$GT$$u20$as$u20$core..iter..traits..iterator..Iterator$GT$4next17ha79d766991ff2561E
	subq	$48, %rsp
	.seh_stackalloc 48
	.seh_endprologue
	movq	%rcx, 8(%rsp)
	movb	$1, %al
	testb	$1, %al
	jne	.LBB130_2
.LBB130_1:
	xorl	%eax, %eax
	testb	$1, %al
	jne	.LBB130_4
	jmp	.LBB130_3
.LBB130_2:
	movq	8(%rsp), %rax
	movq	8(%rax), %rax
	movq	%rax, 32(%rsp)
	jmp	.LBB130_1
.LBB130_3:
	movq	8(%rsp), %rcx
	movq	(%rcx), %rax
	cmpq	8(%rcx), %rax
	sete	%al
	andb	$1, %al
	movb	%al, 31(%rsp)
	jmp	.LBB130_5
.LBB130_4:
	movq	8(%rsp), %rax
	movq	8(%rax), %rax
	cmpq	$0, %rax
	sete	%al
	andb	$1, %al
	movb	%al, 31(%rsp)
.LBB130_5:
	testb	$1, 31(%rsp)
	jne	.LBB130_7
	movq	8(%rsp), %rax
	movq	(%rax), %rax
	movq	%rax, (%rsp)
	xorl	%eax, %eax
	testb	$1, %al
	jne	.LBB130_10
	jmp	.LBB130_9
.LBB130_7:
	movq	$0, 16(%rsp)
.LBB130_8:
	movq	16(%rsp), %rax
	addq	$48, %rsp
	retq
.LBB130_9:
	movq	8(%rsp), %rax
	movq	(%rax), %rcx
	addq	$1, %rcx
	movq	%rcx, 40(%rsp)
	movq	40(%rsp), %rcx
	movq	%rcx, (%rax)
	jmp	.LBB130_11
.LBB130_10:
	movq	8(%rsp), %rax
	movq	8(%rax), %rcx
	subq	$1, %rcx
	movq	%rcx, 8(%rax)
.LBB130_11:
	movq	(%rsp), %rax
	movq	%rax, 16(%rsp)
	jmp	.LBB130_8
	.seh_endproc

	.def	_ZN92_$LT$core..str..iter..Matches$LT$P$GT$$u20$as$u20$core..iter..traits..iterator..Iterator$GT$4next17hf3fb647684670c50E;
	.scl	3;
	.type	32;
	.endef
	.section	.text,"xr",one_only,_ZN92_$LT$core..str..iter..Matches$LT$P$GT$$u20$as$u20$core..iter..traits..iterator..Iterator$GT$4next17hf3fb647684670c50E
	.p2align	4, 0x90
_ZN92_$LT$core..str..iter..Matches$LT$P$GT$$u20$as$u20$core..iter..traits..iterator..Iterator$GT$4next17hf3fb647684670c50E:
.seh_proc _ZN92_$LT$core..str..iter..Matches$LT$P$GT$$u20$as$u20$core..iter..traits..iterator..Iterator$GT$4next17hf3fb647684670c50E
	subq	$40, %rsp
	.seh_stackalloc 40
	.seh_endprologue
	callq	_ZN4core3str4iter24MatchesInternal$LT$P$GT$4next17h7c247c5cdb757d5dE
	nop
	addq	$40, %rsp
	retq
	.seh_endproc

	.def	_ZN95_$LT$alloc..vec..Vec$LT$T$GT$$u20$as$u20$core..iter..traits..collect..FromIterator$LT$T$GT$$GT$9from_iter17he7a9f0d674c23aa3E;
	.scl	3;
	.type	32;
	.endef
	.section	.text,"xr",one_only,_ZN95_$LT$alloc..vec..Vec$LT$T$GT$$u20$as$u20$core..iter..traits..collect..FromIterator$LT$T$GT$$GT$9from_iter17he7a9f0d674c23aa3E
	.p2align	4, 0x90
_ZN95_$LT$alloc..vec..Vec$LT$T$GT$$u20$as$u20$core..iter..traits..collect..FromIterator$LT$T$GT$$GT$9from_iter17he7a9f0d674c23aa3E:
.seh_proc _ZN95_$LT$alloc..vec..Vec$LT$T$GT$$u20$as$u20$core..iter..traits..collect..FromIterator$LT$T$GT$$GT$9from_iter17he7a9f0d674c23aa3E
	subq	$88, %rsp
	.seh_stackalloc 88
	.seh_endprologue
	movq	%rcx, 40(%rsp)
	movq	%rcx, 48(%rsp)
	leaq	56(%rsp), %rcx
	callq	_ZN63_$LT$I$u20$as$u20$core..iter..traits..collect..IntoIterator$GT$9into_iter17h6d1cce3b3b1ae3d0E
	movq	40(%rsp), %rcx
	leaq	56(%rsp), %rdx
	callq	_ZN98_$LT$alloc..vec..Vec$LT$T$GT$$u20$as$u20$alloc..vec..spec_from_iter..SpecFromIter$LT$T$C$I$GT$$GT$9from_iter17h036aabbffe04be12E
	movq	48(%rsp), %rax
	addq	$88, %rsp
	retq
	.seh_endproc

	.def	_ZN97_$LT$alloc..vec..Vec$LT$T$C$A$GT$$u20$as$u20$alloc..vec..spec_extend..SpecExtend$LT$T$C$I$GT$$GT$11spec_extend17h297db5b3dddf8f22E;
	.scl	3;
	.type	32;
	.endef
	.section	.text,"xr",one_only,_ZN97_$LT$alloc..vec..Vec$LT$T$C$A$GT$$u20$as$u20$alloc..vec..spec_extend..SpecExtend$LT$T$C$I$GT$$GT$11spec_extend17h297db5b3dddf8f22E
	.p2align	4, 0x90
_ZN97_$LT$alloc..vec..Vec$LT$T$C$A$GT$$u20$as$u20$alloc..vec..spec_extend..SpecExtend$LT$T$C$I$GT$$GT$11spec_extend17h297db5b3dddf8f22E:
.seh_proc _ZN97_$LT$alloc..vec..Vec$LT$T$C$A$GT$$u20$as$u20$alloc..vec..spec_extend..SpecExtend$LT$T$C$I$GT$$GT$11spec_extend17h297db5b3dddf8f22E
	subq	$40, %rsp
	.seh_stackalloc 40
	.seh_endprologue
	callq	_ZN5alloc3vec16Vec$LT$T$C$A$GT$16extend_desugared17h33db5097fa3f7f0fE
	nop
	addq	$40, %rsp
	retq
	.seh_endproc

	.def	_ZN98_$LT$alloc..vec..Vec$LT$T$GT$$u20$as$u20$alloc..vec..spec_from_iter..SpecFromIter$LT$T$C$I$GT$$GT$9from_iter17h036aabbffe04be12E;
	.scl	3;
	.type	32;
	.endef
	.section	.text,"xr",one_only,_ZN98_$LT$alloc..vec..Vec$LT$T$GT$$u20$as$u20$alloc..vec..spec_from_iter..SpecFromIter$LT$T$C$I$GT$$GT$9from_iter17h036aabbffe04be12E
	.p2align	4, 0x90
_ZN98_$LT$alloc..vec..Vec$LT$T$GT$$u20$as$u20$alloc..vec..spec_from_iter..SpecFromIter$LT$T$C$I$GT$$GT$9from_iter17h036aabbffe04be12E:
.seh_proc _ZN98_$LT$alloc..vec..Vec$LT$T$GT$$u20$as$u20$alloc..vec..spec_from_iter..SpecFromIter$LT$T$C$I$GT$$GT$9from_iter17h036aabbffe04be12E
	subq	$40, %rsp
	.seh_stackalloc 40
	.seh_endprologue
	movq	%rcx, %rax
	movq	%rax, 32(%rsp)
	callq	_ZN111_$LT$alloc..vec..Vec$LT$T$GT$$u20$as$u20$alloc..vec..spec_from_iter_nested..SpecFromIterNested$LT$T$C$I$GT$$GT$9from_iter17haea563c4507eed3fE
	movq	32(%rsp), %rax
	addq	$40, %rsp
	retq
	.seh_endproc

	.def	_ZN4main4main17h292e725f8e4cf108E;
	.scl	3;
	.type	32;
	.endef
	.section	.text,"xr",one_only,_ZN4main4main17h292e725f8e4cf108E
	.p2align	4, 0x90
_ZN4main4main17h292e725f8e4cf108E:
.Lfunc_begin20:
.seh_proc _ZN4main4main17h292e725f8e4cf108E
	.seh_handler __CxxFrameHandler3, @unwind, @except
	pushq	%rbp
	.seh_pushreg %rbp
	pushq	%r15
	.seh_pushreg %r15
	pushq	%r14
	.seh_pushreg %r14
	pushq	%rsi
	.seh_pushreg %rsi
	pushq	%rdi
	.seh_pushreg %rdi
	pushq	%rbx
	.seh_pushreg %rbx
	subq	$1752, %rsp
	.seh_stackalloc 1752
	leaq	128(%rsp), %rbp
	.seh_setframe %rbp, 128
	.seh_endprologue
	movq	$-2, 1616(%rbp)
	leaq	408(%rbp), %rcx
	movq	%rcx, 264(%rbp)
	callq	_ZN3std3env4args17hcfc463c853435f35E
	movq	264(%rbp), %rdx
	leaq	384(%rbp), %rcx
	movq	%rcx, 272(%rbp)
	callq	_ZN4core4iter6traits8iterator8Iterator7collect17h14d52ea062e44a90E
	movq	272(%rbp), %rcx
.Ltmp80:
	leaq	__unnamed_23(%rip), %r8
	movl	$1, %edx
	callq	_ZN81_$LT$alloc..vec..Vec$LT$T$C$A$GT$$u20$as$u20$core..ops..index..Index$LT$I$GT$$GT$5index17he3c29c60484e7f33E
.Ltmp81:
	movq	%rax, 280(%rbp)
	jmp	.LBB135_2
.LBB135_2:
.Ltmp82:
	movq	280(%rbp), %rcx
	callq	_ZN65_$LT$alloc..string..String$u20$as$u20$core..ops..deref..Deref$GT$5deref17hdeefef2faf4aef10E
.Ltmp83:
	movq	%rdx, 248(%rbp)
	movq	%rax, 256(%rbp)
	jmp	.LBB135_3
.LBB135_3:
.Ltmp84:
	movq	248(%rbp), %rdx
	movq	256(%rbp), %rcx
	callq	_ZN4core3str21_$LT$impl$u20$str$GT$5parse17hf00feabe03d8a0acE
.Ltmp85:
	movq	%rax, 240(%rbp)
	jmp	.LBB135_4
.LBB135_4:
	movq	240(%rbp), %rax
	movq	%rax, 1432(%rbp)
	movq	1432(%rbp), %rax
	movq	%rax, 448(%rbp)
	movq	448(%rbp), %rcx
.Ltmp86:
	leaq	__unnamed_24(%rip), %rdx
	callq	_ZN4core6result19Result$LT$T$C$E$GT$6unwrap17h99bc2aaf963ead95E
.Ltmp87:
	movl	%eax, 236(%rbp)
	jmp	.LBB135_5
.LBB135_5:
	movl	236(%rbp), %eax
	movl	%eax, 444(%rbp)
	cmpl	$1, 444(%rbp)
	jl	.LBB135_7
.LBB135_6:
.Ltmp88:
	leaq	__unnamed_25(%rip), %r8
	leaq	384(%rbp), %rcx
	movl	$2, %edx
	callq	_ZN81_$LT$alloc..vec..Vec$LT$T$C$A$GT$$u20$as$u20$core..ops..index..Index$LT$I$GT$$GT$5index17he3c29c60484e7f33E
.Ltmp89:
	movq	%rax, 224(%rbp)
	jmp	.LBB135_8
.LBB135_7:
	movl	$50000000, 444(%rbp)
	jmp	.LBB135_6
.LBB135_8:
.Ltmp90:
	movq	224(%rbp), %rcx
	callq	_ZN65_$LT$alloc..string..String$u20$as$u20$core..ops..deref..Deref$GT$5deref17hdeefef2faf4aef10E
.Ltmp91:
	movq	%rdx, 208(%rbp)
	movq	%rax, 216(%rbp)
	jmp	.LBB135_9
.LBB135_9:
.Ltmp92:
	movq	208(%rbp), %r8
	movq	216(%rbp), %rdx
	leaq	472(%rbp), %rcx
	callq	_ZN4core3str21_$LT$impl$u20$str$GT$5parse17hc2063a74daa9311aE
.Ltmp93:
	jmp	.LBB135_10
.LBB135_10:
.Ltmp94:
	leaq	__unnamed_26(%rip), %rdx
	leaq	472(%rbp), %rcx
	callq	_ZN4core6result19Result$LT$T$C$E$GT$6unwrap17h91f87130e8a4e3c8E
.Ltmp95:
	movq	%rdx, 192(%rbp)
	movq	%rax, 200(%rbp)
	jmp	.LBB135_11
.LBB135_11:
	movq	192(%rbp), %rax
	movq	200(%rbp), %rcx
	movq	%rcx, 456(%rbp)
	movq	%rax, 464(%rbp)
	movq	456(%rbp), %rax
	movq	464(%rbp), %rcx
	orq	%rcx, %rax
	je	.LBB135_13
	jmp	.LBB135_12
.LBB135_12:
	leaq	444(%rbp), %rax
	movq	%rax, 1472(%rbp)
	leaq	_ZN4core3fmt3num3imp52_$LT$impl$u20$core..fmt..Display$u20$for$u20$i32$GT$3fmt17hde77df9dd709fb2cE(%rip), %rax
	movq	%rax, 1480(%rbp)
	movq	1472(%rbp), %rcx
	movq	1480(%rbp), %rax
	movq	%rcx, 544(%rbp)
	movq	%rax, 552(%rbp)
.Ltmp96:
	movq	%rsp, %rax
	movq	$1, 32(%rax)
	leaq	__unnamed_27(%rip), %rdx
	leaq	496(%rbp), %rcx
	movl	$2, %r8d
	leaq	544(%rbp), %r9
	callq	_ZN4core3fmt9Arguments6new_v117hf2dc02d5e6b78bf7E
.Ltmp97:
	jmp	.LBB135_14
.LBB135_13:
	movq	$0, 464(%rbp)
	movq	$10, 456(%rbp)
	jmp	.LBB135_12
.LBB135_14:
.Ltmp98:
	leaq	496(%rbp), %rcx
	callq	_ZN3std2io5stdio6_print17h54eea924fc9a61e1E
.Ltmp99:
	jmp	.LBB135_15
.LBB135_15:
	movq	$0, 568(%rbp)
	movq	$0, 560(%rbp)
	movq	456(%rbp), %rdx
	movq	464(%rbp), %rcx
	addq	$1, %rdx
	movq	%rdx, 176(%rbp)
	adcq	$0, %rcx
	setb	%al
	movq	%rcx, 184(%rbp)
	testb	$1, %al
	jne	.LBB135_17
	movq	184(%rbp), %rax
	movq	176(%rbp), %rcx
	movq	$0, 584(%rbp)
	movq	$1, 576(%rbp)
	movq	%rcx, 592(%rbp)
	movq	%rax, 600(%rbp)
	movq	576(%rbp), %rdx
	movq	584(%rbp), %r8
	movq	592(%rbp), %r9
	movq	600(%rbp), %rcx
.Ltmp100:
	movq	%rsp, %rax
	movq	%rcx, 32(%rax)
	leaq	352(%rbp), %rcx
	callq	_ZN63_$LT$I$u20$as$u20$core..iter..traits..collect..IntoIterator$GT$9into_iter17hcab4129d793eadbcE
	movq	376(%rbp), %rax
	movq	%rax, 144(%rbp)
	movq	368(%rbp), %rax
	movq	%rax, 152(%rbp)
	movq	352(%rbp), %rax
	movq	%rax, 160(%rbp)
	movq	360(%rbp), %rax
	movq	%rax, 168(%rbp)
.Ltmp101:
	jmp	.LBB135_19
.LBB135_17:
.Ltmp162:
	leaq	str.0(%rip), %rcx
	leaq	__unnamed_28(%rip), %r8
	movl	$28, %edx
	callq	_ZN4core9panicking5panic17h18ebef604ebe8b48E
.Ltmp163:
	jmp	.LBB135_18
.LBB135_18:
	ud2
.LBB135_19:
	movq	144(%rbp), %rax
	movq	152(%rbp), %rcx
	movq	168(%rbp), %rdx
	movq	160(%rbp), %r8
	movq	%r8, 608(%rbp)
	movq	%rdx, 616(%rbp)
	movq	%rcx, 624(%rbp)
	movq	%rax, 632(%rbp)
.LBB135_20:
.Ltmp102:
	leaq	608(%rbp), %rcx
	callq	_ZN4core4iter5range101_$LT$impl$u20$core..iter..traits..iterator..Iterator$u20$for$u20$core..ops..range..Range$LT$A$GT$$GT$4next17haf1eda1f008c8deeE
.Ltmp103:
	movq	%rcx, 120(%rbp)
	movq	%rdx, 128(%rbp)
	movq	%rax, 136(%rbp)
	jmp	.LBB135_21
.LBB135_21:
	movq	136(%rbp), %rax
	movq	120(%rbp), %rcx
	movq	128(%rbp), %rdx
	movq	%rdx, 648(%rbp)
	movq	%rcx, 656(%rbp)
	movq	%rax, 640(%rbp)
	cmpq	$0, 640(%rbp)
	jne	.LBB135_23
	movq	560(%rbp), %rax
	movq	%rax, 88(%rbp)
	movq	568(%rbp), %rax
	movq	%rax, 96(%rbp)
	movq	456(%rbp), %rdx
	movq	464(%rbp), %rcx
	addq	$1, %rdx
	movq	%rdx, 104(%rbp)
	adcq	$0, %rcx
	setb	%al
	movq	%rcx, 112(%rbp)
	testb	$1, %al
	jne	.LBB135_59
	jmp	.LBB135_58
.LBB135_23:
	movq	648(%rbp), %rax
	movq	656(%rbp), %rcx
	movq	%rcx, 672(%rbp)
	movq	%rax, 664(%rbp)
.Ltmp104:
	callq	_ZN3std4time10SystemTime3now17h1c56e17012dcf5abE
.Ltmp105:
	movl	%edx, 80(%rbp)
	movl	%eax, 84(%rbp)
	jmp	.LBB135_24
.LBB135_24:
	movl	80(%rbp), %eax
	movl	84(%rbp), %ecx
	movl	%ecx, 72(%rbp)
	movl	%eax, 76(%rbp)
	leaq	664(%rbp), %rax
	movq	%rax, 1584(%rbp)
	leaq	_ZN4core3fmt3num53_$LT$impl$u20$core..fmt..Display$u20$for$u20$u128$GT$3fmt17h676cdf23a741e9d3E(%rip), %rax
	movq	%rax, 1592(%rbp)
	movq	1584(%rbp), %r8
	movq	1592(%rbp), %rdx
	leaq	456(%rbp), %rcx
	movq	%rcx, 1568(%rbp)
	movq	%rax, 1576(%rbp)
	movq	1568(%rbp), %rcx
	movq	1576(%rbp), %rax
	movq	%r8, 728(%rbp)
	movq	%rdx, 736(%rbp)
	movq	%rcx, 744(%rbp)
	movq	%rax, 752(%rbp)
.Ltmp106:
	movq	%rsp, %rax
	movq	$2, 32(%rax)
	leaq	__unnamed_29(%rip), %rdx
	leaq	680(%rbp), %rcx
	movl	$3, %r8d
	leaq	728(%rbp), %r9
	callq	_ZN4core3fmt9Arguments6new_v117hf2dc02d5e6b78bf7E
.Ltmp107:
	jmp	.LBB135_25
.LBB135_25:
.Ltmp108:
	leaq	680(%rbp), %rcx
	callq	_ZN3std2io5stdio6_print17h54eea924fc9a61e1E
.Ltmp109:
	jmp	.LBB135_26
.LBB135_26:
	movl	444(%rbp), %eax
	movl	$1, 760(%rbp)
	movl	%eax, 764(%rbp)
	movl	760(%rbp), %ecx
	movl	764(%rbp), %edx
.Ltmp110:
	callq	_ZN63_$LT$I$u20$as$u20$core..iter..traits..collect..IntoIterator$GT$9into_iter17ha8be961d7065cc35E
.Ltmp111:
	movl	%edx, 64(%rbp)
	movl	%eax, 68(%rbp)
	jmp	.LBB135_27
.LBB135_27:
	movl	64(%rbp), %eax
	movl	68(%rbp), %ecx
	movl	%ecx, 768(%rbp)
	movl	%eax, 772(%rbp)
.LBB135_28:
.Ltmp112:
	leaq	768(%rbp), %rcx
	callq	_ZN4core4iter5range101_$LT$impl$u20$core..iter..traits..iterator..Iterator$u20$for$u20$core..ops..range..Range$LT$A$GT$$GT$4next17h0ca39cfbdcbd2a3eE
.Ltmp113:
	movl	%edx, 56(%rbp)
	movl	%eax, 60(%rbp)
	jmp	.LBB135_29
.LBB135_29:
	movl	56(%rbp), %eax
	movl	60(%rbp), %ecx
	movl	%ecx, 776(%rbp)
	movl	%eax, 780(%rbp)
	movl	776(%rbp), %eax
	cmpq	$0, %rax
	jne	.LBB135_31
.Ltmp136:
	leaq	__unnamed_30(%rip), %rdx
	leaq	1080(%rbp), %rcx
	movl	$1, %r8d
	callq	_ZN4core3fmt9Arguments9new_const17h4da0eb11f5165001E
.Ltmp137:
	jmp	.LBB135_48
.LBB135_31:
	movl	780(%rbp), %eax
	movl	%eax, 788(%rbp)
	leaq	788(%rbp), %rax
	movq	%rax, 1440(%rbp)
	leaq	_ZN4core3fmt3num51_$LT$impl$u20$core..fmt..Binary$u20$for$u20$i32$GT$3fmt17h698aa581dd15cfecE(%rip), %rax
	movq	%rax, 1448(%rbp)
	movq	1440(%rbp), %rcx
	movq	1448(%rbp), %rax
	movq	%rcx, 992(%rbp)
	movq	%rax, 1000(%rbp)
.Ltmp114:
	movq	%rsp, %rax
	movq	$1, 32(%rax)
	leaq	__unnamed_31(%rip), %rdx
	leaq	944(%rbp), %rcx
	movl	$1, %r8d
	leaq	992(%rbp), %r9
	callq	_ZN4core3fmt9Arguments6new_v117hf2dc02d5e6b78bf7E
.Ltmp115:
	jmp	.LBB135_32
.LBB135_32:
.Ltmp116:
	leaq	920(%rbp), %rcx
	leaq	944(%rbp), %rdx
	callq	_ZN5alloc3fmt6format17h2cdb04e48c6f7723E
.Ltmp117:
	jmp	.LBB135_33
.LBB135_33:
	movq	936(%rbp), %rax
	movq	%rax, 912(%rbp)
	movups	920(%rbp), %xmm0
	movaps	%xmm0, 896(%rbp)
.Ltmp118:
	leaq	896(%rbp), %rcx
	callq	_ZN65_$LT$alloc..string..String$u20$as$u20$core..ops..deref..Deref$GT$5deref17hdeefef2faf4aef10E
.Ltmp119:
	movq	%rdx, 40(%rbp)
	movq	%rax, 48(%rbp)
	jmp	.LBB135_35
.LBB135_35:
.Ltmp120:
	movq	40(%rbp), %r8
	movq	48(%rbp), %rdx
	movq	%rsp, %rax
	movq	$1, 32(%rax)
	leaq	__unnamed_32(%rip), %r9
	leaq	792(%rbp), %rcx
	callq	_ZN4core3str21_$LT$impl$u20$str$GT$7matches17h61a035ac1c8a06e1E
.Ltmp121:
	jmp	.LBB135_36
.LBB135_36:
.Ltmp122:
	leaq	792(%rbp), %rcx
	callq	_ZN4core4iter6traits8iterator8Iterator5count17h70cf1fe378340bb1E
.Ltmp123:
	movq	%rax, 32(%rbp)
	jmp	.LBB135_37
.LBB135_37:
	movq	32(%rbp), %rax
	testb	$1, %al
	sete	%al
	movb	%al, 31(%rbp)
.Ltmp124:
	leaq	896(%rbp), %rcx
	callq	_ZN4core3ptr42drop_in_place$LT$alloc..string..String$GT$17h8b93a42a264a5bd1E
.Ltmp125:
	jmp	.LBB135_38
.LBB135_38:
	movb	31(%rbp), %al
	testb	$1, %al
	jne	.LBB135_39
	jmp	.LBB135_28
.LBB135_39:
	movl	788(%rbp), %eax
	movl	%eax, 20(%rbp)
	movl	444(%rbp), %eax
	movl	%eax, 24(%rbp)
	xorl	%eax, %eax
	testb	$1, %al
	jne	.LBB135_41
	movl	24(%rbp), %eax
	movl	$100, %ecx
	cltd
	idivl	%ecx
	movl	%eax, 16(%rbp)
	cmpl	$0, %eax
	sete	%al
	testb	$1, %al
	jne	.LBB135_43
	jmp	.LBB135_42
.LBB135_41:
.Ltmp134:
	leaq	str.2(%rip), %rcx
	leaq	__unnamed_33(%rip), %r8
	movl	$31, %edx
	callq	_ZN4core9panicking5panic17h18ebef604ebe8b48E
.Ltmp135:
	jmp	.LBB135_18
.LBB135_42:
	movl	20(%rbp), %ecx
	movl	16(%rbp), %eax
	cmpl	$-1, %eax
	sete	%al
	cmpl	$-2147483648, %ecx
	sete	%cl
	andb	%cl, %al
	testb	$1, %al
	jne	.LBB135_45
	jmp	.LBB135_44
.LBB135_43:
.Ltmp132:
	leaq	str.1(%rip), %rcx
	leaq	__unnamed_34(%rip), %r8
	movl	$25, %edx
	callq	_ZN4core9panicking5panic17h18ebef604ebe8b48E
.Ltmp133:
	jmp	.LBB135_18
.LBB135_44:
	movl	16(%rbp), %ecx
	movl	20(%rbp), %eax
	cltd
	idivl	%ecx
	movl	%eax, 1076(%rbp)
	leaq	1076(%rbp), %rax
	movq	%rax, 1456(%rbp)
	leaq	_ZN4core3fmt3num3imp52_$LT$impl$u20$core..fmt..Display$u20$for$u20$i32$GT$3fmt17hde77df9dd709fb2cE(%rip), %rax
	movq	%rax, 1464(%rbp)
	movq	1456(%rbp), %rcx
	movq	1464(%rbp), %rax
	movq	%rcx, 1056(%rbp)
	movq	%rax, 1064(%rbp)
.Ltmp126:
	movq	%rsp, %rax
	movq	$1, 32(%rax)
	leaq	__unnamed_35(%rip), %rdx
	leaq	1008(%rbp), %rcx
	movl	$2, %r8d
	leaq	1056(%rbp), %r9
	callq	_ZN4core3fmt9Arguments6new_v117hf2dc02d5e6b78bf7E
.Ltmp127:
	jmp	.LBB135_46
.LBB135_45:
.Ltmp130:
	leaq	str.2(%rip), %rcx
	leaq	__unnamed_34(%rip), %r8
	movl	$31, %edx
	callq	_ZN4core9panicking5panic17h18ebef604ebe8b48E
.Ltmp131:
	jmp	.LBB135_18
.LBB135_46:
.Ltmp128:
	leaq	1008(%rbp), %rcx
	callq	_ZN3std2io5stdio6_print17h54eea924fc9a61e1E
.Ltmp129:
	jmp	.LBB135_47
.LBB135_47:
	jmp	.LBB135_28
.LBB135_48:
.Ltmp138:
	leaq	1080(%rbp), %rcx
	callq	_ZN3std2io5stdio6_print17h54eea924fc9a61e1E
.Ltmp139:
	jmp	.LBB135_49
.LBB135_49:
.Ltmp140:
	callq	_ZN3std4time10SystemTime3now17h1c56e17012dcf5abE
.Ltmp141:
	movl	%edx, 8(%rbp)
	movl	%eax, 12(%rbp)
	jmp	.LBB135_50
.LBB135_50:
	movl	76(%rbp), %r9d
	movl	72(%rbp), %r8d
	movl	8(%rbp), %eax
	movl	12(%rbp), %ecx
	movl	%ecx, 1128(%rbp)
	movl	%eax, 1132(%rbp)
.Ltmp142:
	leaq	1168(%rbp), %rcx
	leaq	1128(%rbp), %rdx
	callq	_ZN3std4time10SystemTime14duration_since17he05e7d0c763d27d0E
.Ltmp143:
	jmp	.LBB135_51
.LBB135_51:
.Ltmp144:
	leaq	__unnamed_36(%rip), %rdx
	leaq	1168(%rbp), %rcx
	callq	_ZN4core6result19Result$LT$T$C$E$GT$6unwrap17h36519de16bc00574E
.Ltmp145:
	movl	%edx, -4(%rbp)
	movq	%rax, (%rbp)
	jmp	.LBB135_52
.LBB135_52:
	movl	-4(%rbp), %eax
	movq	(%rbp), %rcx
	movq	%rcx, 1152(%rbp)
	movl	%eax, 1160(%rbp)
.Ltmp146:
	leaq	1152(%rbp), %rcx
	callq	_ZN4core4time8Duration9as_millis17hde7fe9c24c8ffb98E
.Ltmp147:
	movq	%rdx, -24(%rbp)
	movq	%rax, -16(%rbp)
	jmp	.LBB135_53
.LBB135_53:
	movq	-24(%rbp), %rax
	movq	-16(%rbp), %rcx
	movq	%rcx, 1136(%rbp)
	movq	%rax, 1144(%rbp)
	leaq	664(%rbp), %rax
	movq	%rax, 1552(%rbp)
	leaq	_ZN4core3fmt3num53_$LT$impl$u20$core..fmt..Display$u20$for$u20$u128$GT$3fmt17h676cdf23a741e9d3E(%rip), %rax
	movq	%rax, 1560(%rbp)
	movq	1552(%rbp), %r8
	movq	1560(%rbp), %rdx
	leaq	1136(%rbp), %rax
	movq	%rax, 1600(%rbp)
	leaq	_ZN4core3fmt3num51_$LT$impl$u20$core..fmt..Debug$u20$for$u20$u128$GT$3fmt17h6ab27be23d922e09E(%rip), %rax
	movq	%rax, 1608(%rbp)
	movq	1600(%rbp), %rcx
	movq	1608(%rbp), %rax
	movq	%r8, 1240(%rbp)
	movq	%rdx, 1248(%rbp)
	movq	%rcx, 1256(%rbp)
	movq	%rax, 1264(%rbp)
.Ltmp148:
	movq	%rsp, %rax
	movq	$2, 32(%rax)
	leaq	__unnamed_37(%rip), %rdx
	leaq	1192(%rbp), %rcx
	movl	$3, %r8d
	leaq	1240(%rbp), %r9
	callq	_ZN4core3fmt9Arguments6new_v117hf2dc02d5e6b78bf7E
.Ltmp149:
	jmp	.LBB135_54
.LBB135_54:
.Ltmp150:
	leaq	1192(%rbp), %rcx
	callq	_ZN3std2io5stdio6_print17h54eea924fc9a61e1E
.Ltmp151:
	jmp	.LBB135_55
.LBB135_55:
	movq	1136(%rbp), %r8
	movq	1144(%rbp), %rax
	movq	560(%rbp), %rdx
	movq	568(%rbp), %rcx
	addq	%r8, %rdx
	movq	%rdx, -40(%rbp)
	adcq	%rax, %rcx
	setb	%al
	movq	%rcx, -32(%rbp)
	testb	$1, %al
	jne	.LBB135_57
	movq	-32(%rbp), %rax
	movq	-40(%rbp), %rcx
	movq	%rcx, 560(%rbp)
	movq	%rax, 568(%rbp)
	jmp	.LBB135_20
.LBB135_57:
.Ltmp152:
	leaq	str.0(%rip), %rcx
	leaq	__unnamed_38(%rip), %r8
	movl	$28, %edx
	callq	_ZN4core9panicking5panic17h18ebef604ebe8b48E
.Ltmp153:
	jmp	.LBB135_18
.LBB135_58:
	movq	112(%rbp), %rcx
	movq	104(%rbp), %rax
	orq	%rcx, %rax
	sete	%al
	testb	$1, %al
	jne	.LBB135_61
	jmp	.LBB135_60
.LBB135_59:
.Ltmp160:
	leaq	str.0(%rip), %rcx
	leaq	__unnamed_39(%rip), %r8
	movl	$28, %edx
	callq	_ZN4core9panicking5panic17h18ebef604ebe8b48E
.Ltmp161:
	jmp	.LBB135_18
.LBB135_60:
	movq	104(%rbp), %rax
	movq	112(%rbp), %rcx
	movq	96(%rbp), %rdx
	movq	88(%rbp), %r8
	movq	%r8, 336(%rbp)
	movq	%rdx, 344(%rbp)
	movq	%rcx, 328(%rbp)
	movq	%rax, 320(%rbp)
	leaq	336(%rbp), %rcx
	leaq	320(%rbp), %rdx
	callq	__udivti3
	movaps	%xmm0, %xmm1
	pshufd	$238, %xmm1, %xmm0
	movq	%xmm1, 1384(%rbp)
	movq	%xmm0, 1392(%rbp)
	leaq	1384(%rbp), %rax
	movq	%rax, 1536(%rbp)
	leaq	_ZN4core3fmt3num53_$LT$impl$u20$core..fmt..Display$u20$for$u20$u128$GT$3fmt17h676cdf23a741e9d3E(%rip), %rax
	movq	%rax, -56(%rbp)
	movq	%rax, 1544(%rbp)
	movq	1536(%rbp), %rsi
	movq	1544(%rbp), %rcx
	movq	%rcx, -88(%rbp)
	leaq	560(%rbp), %rcx
	movq	%rcx, 1520(%rbp)
	movq	%rax, 1528(%rbp)
	movq	1520(%rbp), %rax
	movq	%rax, -80(%rbp)
	movq	1528(%rbp), %rax
	movq	%rax, -72(%rbp)
	movq	560(%rbp), %rax
	movq	568(%rbp), %rcx
	movq	%rcx, 312(%rbp)
	movq	%rax, 304(%rbp)
	movq	$0, 296(%rbp)
	movq	$1000, 288(%rbp)
	leaq	304(%rbp), %rcx
	leaq	288(%rbp), %rdx
	callq	__udivti3
	movq	-56(%rbp), %rax
	movq	-88(%rbp), %r11
	movq	-80(%rbp), %r10
	movq	-72(%rbp), %r9
	movaps	%xmm0, %xmm1
	pshufd	$238, %xmm1, %xmm0
	movq	%xmm1, 1400(%rbp)
	movq	%xmm0, 1408(%rbp)
	leaq	1400(%rbp), %rcx
	movq	%rcx, 1504(%rbp)
	movq	%rax, 1512(%rbp)
	movq	1504(%rbp), %r8
	movq	1512(%rbp), %rax
	movq	%rax, -48(%rbp)
	movq	560(%rbp), %rax
	movq	568(%rbp), %rbx
	xorq	$2, %rax
	movq	%rbx, %rcx
	shldq	$63, %rax, %rcx
	movq	%rcx, -64(%rbp)
	shrq	%rbx
	addq	%rbx, %rcx
	adcq	$0, %rcx
	movabsq	$-6148914691236517205, %r14
	movq	%rcx, %rax
	mulq	%r14
	movq	-64(%rbp), %rax
	shrq	%rdx
	leaq	(%rdx,%rdx,2), %rdx
	subq	%rdx, %rcx
	subq	%rcx, %rax
	sbbq	$0, %rbx
	movabsq	$-6148914691236517206, %rcx
	movq	%rax, %r15
	imulq	%rcx, %r15
	mulq	%r14
	movq	%rax, %rdi
	movq	-56(%rbp), %rax
	movq	%rdx, %rcx
	movq	-48(%rbp), %rdx
	addq	%r15, %rcx
	imulq	%r14, %rbx
	addq	%rbx, %rcx
	movq	%rdi, 1416(%rbp)
	movq	%rcx, 1424(%rbp)
	leaq	1416(%rbp), %rcx
	movq	%rcx, 1488(%rbp)
	movq	%rax, 1496(%rbp)
	movq	1488(%rbp), %rcx
	movq	1496(%rbp), %rax
	movq	%rsi, 1320(%rbp)
	movq	%r11, 1328(%rbp)
	movq	%r10, 1336(%rbp)
	movq	%r9, 1344(%rbp)
	movq	%r8, 1352(%rbp)
	movq	%rdx, 1360(%rbp)
	movq	%rcx, 1368(%rbp)
	movq	%rax, 1376(%rbp)
.Ltmp154:
	movq	%rsp, %rax
	movq	$4, 32(%rax)
	leaq	__unnamed_40(%rip), %rdx
	leaq	1272(%rbp), %rcx
	movl	$5, %r8d
	leaq	1320(%rbp), %r9
	callq	_ZN4core3fmt9Arguments6new_v117hf2dc02d5e6b78bf7E
.Ltmp155:
	jmp	.LBB135_62
.LBB135_61:
.Ltmp158:
	leaq	str.1(%rip), %rcx
	leaq	__unnamed_41(%rip), %r8
	movl	$25, %edx
	callq	_ZN4core9panicking5panic17h18ebef604ebe8b48E
.Ltmp159:
	jmp	.LBB135_18
.LBB135_62:
.Ltmp156:
	leaq	1272(%rbp), %rcx
	callq	_ZN3std2io5stdio6_print17h54eea924fc9a61e1E
.Ltmp157:
	jmp	.LBB135_63
.LBB135_63:
	leaq	384(%rbp), %rcx
	callq	_ZN4core3ptr65drop_in_place$LT$alloc..vec..Vec$LT$alloc..string..String$GT$$GT$17h13469b5dd60fd579E
	nop
	addq	$1752, %rsp
	popq	%rbx
	popq	%rdi
	popq	%rsi
	popq	%r14
	popq	%r15
	popq	%rbp
	retq
	.seh_handlerdata
	.long	($cppxdata$_ZN4main4main17h292e725f8e4cf108E)@IMGREL
	.section	.text,"xr",one_only,_ZN4main4main17h292e725f8e4cf108E
	.seh_endproc
	.def	"?dtor$1@?0?_ZN4main4main17h292e725f8e4cf108E@4HA";
	.scl	3;
	.type	32;
	.endef
	.p2align	4, 0x90
"?dtor$1@?0?_ZN4main4main17h292e725f8e4cf108E@4HA":
.seh_proc "?dtor$1@?0?_ZN4main4main17h292e725f8e4cf108E@4HA"
.LBB135_1:
	movq	%rdx, 16(%rsp)
	pushq	%rbp
	.seh_pushreg %rbp
	pushq	%r15
	.seh_pushreg %r15
	pushq	%r14
	.seh_pushreg %r14
	pushq	%rsi
	.seh_pushreg %rsi
	pushq	%rdi
	.seh_pushreg %rdi
	pushq	%rbx
	.seh_pushreg %rbx
	subq	$40, %rsp
	.seh_stackalloc 40
	leaq	128(%rdx), %rbp
	.seh_endprologue
	leaq	384(%rbp), %rcx
	callq	_ZN4core3ptr65drop_in_place$LT$alloc..vec..Vec$LT$alloc..string..String$GT$$GT$17h13469b5dd60fd579E
	nop
	addq	$40, %rsp
	popq	%rbx
	popq	%rdi
	popq	%rsi
	popq	%r14
	popq	%r15
	popq	%rbp
	retq
	.seh_handlerdata
	.section	.text,"xr",one_only,_ZN4main4main17h292e725f8e4cf108E
	.seh_endproc
	.def	"?dtor$34@?0?_ZN4main4main17h292e725f8e4cf108E@4HA";
	.scl	3;
	.type	32;
	.endef
	.p2align	4, 0x90
"?dtor$34@?0?_ZN4main4main17h292e725f8e4cf108E@4HA":
.seh_proc "?dtor$34@?0?_ZN4main4main17h292e725f8e4cf108E@4HA"
.LBB135_34:
	movq	%rdx, 16(%rsp)
	pushq	%rbp
	.seh_pushreg %rbp
	pushq	%r15
	.seh_pushreg %r15
	pushq	%r14
	.seh_pushreg %r14
	pushq	%rsi
	.seh_pushreg %rsi
	pushq	%rdi
	.seh_pushreg %rdi
	pushq	%rbx
	.seh_pushreg %rbx
	subq	$40, %rsp
	.seh_stackalloc 40
	leaq	128(%rdx), %rbp
	.seh_endprologue
	leaq	896(%rbp), %rcx
	callq	_ZN4core3ptr42drop_in_place$LT$alloc..string..String$GT$17h8b93a42a264a5bd1E
	nop
	addq	$40, %rsp
	popq	%rbx
	popq	%rdi
	popq	%rsi
	popq	%r14
	popq	%r15
	popq	%rbp
	retq
.Lfunc_end20:
	.seh_handlerdata
	.section	.text,"xr",one_only,_ZN4main4main17h292e725f8e4cf108E
	.seh_endproc
	.section	.xdata,"dr",associative,_ZN4main4main17h292e725f8e4cf108E
	.p2align	2, 0x0
$cppxdata$_ZN4main4main17h292e725f8e4cf108E:
	.long	429065506
	.long	2
	.long	($stateUnwindMap$_ZN4main4main17h292e725f8e4cf108E)@IMGREL
	.long	0
	.long	0
	.long	7
	.long	($ip2state$_ZN4main4main17h292e725f8e4cf108E)@IMGREL
	.long	1744
	.long	0
	.long	1
$stateUnwindMap$_ZN4main4main17h292e725f8e4cf108E:
	.long	-1
	.long	"?dtor$1@?0?_ZN4main4main17h292e725f8e4cf108E@4HA"@IMGREL
	.long	0
	.long	"?dtor$34@?0?_ZN4main4main17h292e725f8e4cf108E@4HA"@IMGREL
$ip2state$_ZN4main4main17h292e725f8e4cf108E:
	.long	.Lfunc_begin20@IMGREL
	.long	-1
	.long	.Ltmp80@IMGREL+1
	.long	0
	.long	.Ltmp118@IMGREL+1
	.long	1
	.long	.Ltmp124@IMGREL+1
	.long	0
	.long	.Ltmp161@IMGREL+1
	.long	-1
	.long	.Ltmp154@IMGREL+1
	.long	0
	.long	.Ltmp157@IMGREL+1
	.long	-1
	.section	.text,"xr",one_only,_ZN4main4main17h292e725f8e4cf108E

	.def	main;
	.scl	2;
	.type	32;
	.endef
	.section	.text,"xr",one_only,main
	.globl	main
	.p2align	4, 0x90
main:
.seh_proc main
	subq	$40, %rsp
	.seh_stackalloc 40
	.seh_endprologue
	movq	%rdx, %r8
	movslq	%ecx, %rdx
	leaq	_ZN4main4main17h292e725f8e4cf108E(%rip), %rcx
	xorl	%r9d, %r9d
	callq	_ZN3std2rt10lang_start17hf4a787ab4b160089E
	nop
	addq	$40, %rsp
	retq
	.seh_endproc

	.section	.rdata,"dr",one_only,__unnamed_1
__unnamed_1:
	.ascii	"assertion failed: 0 < pointee_size && pointee_size <= isize::MAX as usize"

	.section	.rdata,"dr",one_only,__unnamed_42
__unnamed_42:
	.ascii	"/rustc/eb26296b556cef10fb713a38f3d16b9886080f26\\library\\core\\src\\ptr\\const_ptr.rs"

	.section	.rdata,"dr",one_only,__unnamed_2
	.p2align	3, 0x0
__unnamed_2:
	.quad	__unnamed_42
	.asciz	"Q\000\000\000\000\000\000\000\034\003\000\000\t\000\000"

	.section	.rdata,"dr",one_only,__unnamed_43
	.p2align	3, 0x0
__unnamed_43:
	.asciz	"\b\000\000\000\000\000\000\000\000\000\000\000\000\000\000"

	.section	.rdata,"dr",one_only,__unnamed_3
	.p2align	3, 0x0
__unnamed_3:
	.quad	_ZN4core3ptr85drop_in_place$LT$std..rt..lang_start$LT$$LP$$RP$$GT$..$u7b$$u7b$closure$u7d$$u7d$$GT$17h9f9f6eec81c0ab45E
	.asciz	"\b\000\000\000\000\000\000\000\b\000\000\000\000\000\000"
	.quad	_ZN4core3ops8function6FnOnce40call_once$u7b$$u7b$vtable.shim$u7d$$u7d$17h0d05e37fff61a43bE
	.quad	_ZN3std2rt10lang_start28_$u7b$$u7b$closure$u7d$$u7d$17h7b3394cf5149f879E
	.quad	_ZN3std2rt10lang_start28_$u7b$$u7b$closure$u7d$$u7d$17h7b3394cf5149f879E

	.section	.rdata,"dr",one_only,__unnamed_4
	.p2align	3, 0x0
__unnamed_4:

	.section	.rdata,"dr",one_only,__unnamed_44
__unnamed_44:
	.ascii	"invalid args"

	.section	.rdata,"dr",one_only,__unnamed_5
	.p2align	3, 0x0
__unnamed_5:
	.quad	__unnamed_44
	.asciz	"\f\000\000\000\000\000\000"

	.section	.rdata,"dr",one_only,__unnamed_45
__unnamed_45:
	.ascii	"/rustc/eb26296b556cef10fb713a38f3d16b9886080f26\\library\\core\\src\\fmt\\mod.rs"

	.section	.rdata,"dr",one_only,__unnamed_6
	.p2align	3, 0x0
__unnamed_6:
	.quad	__unnamed_45
	.asciz	"K\000\000\000\000\000\000\0005\001\000\000\r\000\000"

	.section	.rdata,"dr",one_only,__unnamed_7
	.p2align	3, 0x0
__unnamed_7:
	.quad	__unnamed_45
	.asciz	"K\000\000\000\000\000\000\000+\001\000\000\r\000\000"

	.section	.rdata,"dr",one_only,__unnamed_46
__unnamed_46:
	.ascii	"/rustc/eb26296b556cef10fb713a38f3d16b9886080f26\\library\\core\\src\\str\\pattern.rs"

	.section	.rdata,"dr",one_only,__unnamed_8
	.p2align	3, 0x0
__unnamed_8:
	.quad	__unnamed_46
	.asciz	"O\000\000\000\000\000\000\000\247\005\000\000\024\000\000"

	.section	.rdata,"dr",one_only,__unnamed_9
	.p2align	3, 0x0
__unnamed_9:
	.quad	__unnamed_46
	.asciz	"O\000\000\000\000\000\000\000\247\005\000\000!\000\000"

	.section	.rdata,"dr",one_only,__unnamed_10
	.p2align	3, 0x0
__unnamed_10:
	.quad	__unnamed_46
	.asciz	"O\000\000\000\000\000\000\000\263\005\000\000\024\000\000"

	.section	.rdata,"dr",one_only,__unnamed_11
	.p2align	3, 0x0
__unnamed_11:
	.quad	__unnamed_46
	.asciz	"O\000\000\000\000\000\000\000\263\005\000\000!\000\000"

	.section	.rdata,"dr",one_only,__unnamed_47
__unnamed_47:
	.ascii	"/rustc/eb26296b556cef10fb713a38f3d16b9886080f26\\library\\core\\src\\iter\\traits\\exact_size.rs"

	.section	.rdata,"dr",one_only,__unnamed_12
	.p2align	3, 0x0
__unnamed_12:
	.quad	__unnamed_47
	.asciz	"Z\000\000\000\000\000\000\000z\000\000\000\t\000\000"

	.section	.rdata,"dr",one_only,__unnamed_48
__unnamed_48:
	.ascii	"/rustc/eb26296b556cef10fb713a38f3d16b9886080f26\\library\\core\\src\\iter\\traits\\iterator.rs"

	.section	.rdata,"dr",one_only,__unnamed_13
	.p2align	3, 0x0
__unnamed_13:
	.quad	__unnamed_48
	.asciz	"X\000\000\000\000\000\000\000\r\001\000\000\030\000\000"

	.section	.rdata,"dr",one_only,str.0
	.p2align	4, 0x0
str.0:
	.ascii	"attempt to add with overflow"

	.section	.rdata,"dr",one_only,__unnamed_49
__unnamed_49:
	.ascii	"/rustc/eb26296b556cef10fb713a38f3d16b9886080f26\\library\\core\\src\\alloc\\layout.rs"

	.section	.rdata,"dr",one_only,__unnamed_14
	.p2align	3, 0x0
__unnamed_14:
	.quad	__unnamed_49
	.asciz	"P\000\000\000\000\000\000\000\277\001\000\000)\000\000"

	.section	.rdata,"dr",one_only,str.1
	.p2align	4, 0x0
str.1:
	.ascii	"attempt to divide by zero"

	.section	.rdata,"dr",one_only,__unnamed_15
__unnamed_15:
	.ascii	"called `Result::unwrap()` on an `Err` value"

	.section	.rdata,"dr",one_only,__unnamed_16
	.p2align	3, 0x0
__unnamed_16:
	.quad	_ZN4core3ptr47drop_in_place$LT$std..time..SystemTimeError$GT$17hdc4adebf8240c588E
	.asciz	"\020\000\000\000\000\000\000\000\b\000\000\000\000\000\000"
	.quad	_ZN63_$LT$std..time..SystemTimeError$u20$as$u20$core..fmt..Debug$GT$3fmt17h4cbfde3d9ddbdbd5E

	.section	.rdata,"dr",one_only,__unnamed_17
	.p2align	3, 0x0
__unnamed_17:
	.quad	_ZN4core3ptr52drop_in_place$LT$core..num..error..ParseIntError$GT$17hed18b906ac0d449dE
	.asciz	"\001\000\000\000\000\000\000\000\001\000\000\000\000\000\000"
	.quad	_ZN68_$LT$core..num..error..ParseIntError$u20$as$u20$core..fmt..Debug$GT$3fmt17h6ad7fb0c19d2d34eE

	.section	.rdata,"dr",one_only,__unnamed_18
	.p2align	3, 0x0
__unnamed_18:
	.quad	_ZN4core3ptr58drop_in_place$LT$$RF$core..option..Option$LT$usize$GT$$GT$17hee5109b1a49f7bfdE
	.asciz	"\b\000\000\000\000\000\000\000\b\000\000\000\000\000\000"
	.quad	_ZN42_$LT$$RF$T$u20$as$u20$core..fmt..Debug$GT$3fmt17ha2e636de62c16706E

	.section	.rdata,"dr",one_only,__unnamed_20
__unnamed_20:
	.ascii	"Some"

	.section	.rdata,"dr",one_only,__unnamed_21
	.p2align	3, 0x0
__unnamed_21:
	.quad	_ZN4core3ptr30drop_in_place$LT$$RF$usize$GT$17h8434ea6b8ae69b81E
	.asciz	"\b\000\000\000\000\000\000\000\b\000\000\000\000\000\000"
	.quad	_ZN42_$LT$$RF$T$u20$as$u20$core..fmt..Debug$GT$3fmt17h69f3d89ea9a0fda5E

	.section	.rdata,"dr",one_only,__unnamed_19
__unnamed_19:
	.ascii	"None"

	.section	.rdata,"dr",one_only,__unnamed_22
	.p2align	3, 0x0
__unnamed_22:
	.quad	__unnamed_46
	.asciz	"O\000\000\000\000\000\000\0007\004\000\000\027\000\000"

	.section	.rdata,"dr",one_only,__unnamed_50
__unnamed_50:
	.ascii	"./src/main.rs"

	.section	.rdata,"dr",one_only,__unnamed_23
	.p2align	3, 0x0
__unnamed_23:
	.quad	__unnamed_50
	.asciz	"\r\000\000\000\000\000\000\000\024\000\000\000\026\000\000"

	.section	.rdata,"dr",one_only,__unnamed_24
	.p2align	3, 0x0
__unnamed_24:
	.quad	__unnamed_50
	.asciz	"\r\000\000\000\000\000\000\000\024\000\000\000-\000\000"

	.section	.rdata,"dr",one_only,__unnamed_25
	.p2align	3, 0x0
__unnamed_25:
	.quad	__unnamed_50
	.asciz	"\r\000\000\000\000\000\000\000\030\000\000\000\025\000\000"

	.section	.rdata,"dr",one_only,__unnamed_26
	.p2align	3, 0x0
__unnamed_26:
	.quad	__unnamed_50
	.asciz	"\r\000\000\000\000\000\000\000\030\000\000\000-\000\000"

	.section	.rdata,"dr",one_only,__unnamed_51
__unnamed_51:
	.ascii	"Testing with preset: "

	.section	.rdata,"dr",one_only,__unnamed_52
__unnamed_52:
	.ascii	" repitions (should be above 1000000 for accurate results)\n\n"

	.section	.rdata,"dr",one_only,__unnamed_27
	.p2align	3, 0x0
__unnamed_27:
	.quad	__unnamed_51
	.asciz	"\025\000\000\000\000\000\000"
	.quad	__unnamed_52
	.asciz	";\000\000\000\000\000\000"

	.section	.rdata,"dr",one_only,__unnamed_28
	.p2align	3, 0x0
__unnamed_28:
	.quad	__unnamed_50
	.asciz	"\r\000\000\000\000\000\000\000 \000\000\000\021\000\000"

	.section	.rdata,"dr",one_only,__unnamed_53
__unnamed_53:
	.ascii	"Test started: "

	.section	.rdata,"dr",one_only,__unnamed_54
__unnamed_54:
	.byte	47

	.section	.rdata,"dr",one_only,__unnamed_55
__unnamed_55:
	.byte	10

	.section	.rdata,"dr",one_only,__unnamed_29
	.p2align	3, 0x0
__unnamed_29:
	.quad	__unnamed_53
	.asciz	"\016\000\000\000\000\000\000"
	.quad	__unnamed_54
	.asciz	"\001\000\000\000\000\000\000"
	.quad	__unnamed_55
	.asciz	"\001\000\000\000\000\000\000"

	.section	.rdata,"dr",one_only,__unnamed_31
	.p2align	3, 0x0
__unnamed_31:
	.quad	__unnamed_4
	.zero	8

	.section	.rdata,"dr",one_only,__unnamed_32
__unnamed_32:
	.byte	49

	.section	.rdata,"dr",one_only,__unnamed_56
__unnamed_56:
	.ascii	"\rProgress: ("

	.section	.rdata,"dr",one_only,__unnamed_57
__unnamed_57:
	.ascii	"%)"

	.section	.rdata,"dr",one_only,__unnamed_35
	.p2align	3, 0x0
__unnamed_35:
	.quad	__unnamed_56
	.asciz	"\f\000\000\000\000\000\000"
	.quad	__unnamed_57
	.asciz	"\002\000\000\000\000\000\000"

	.section	.rdata,"dr",one_only,__unnamed_33
	.p2align	3, 0x0
__unnamed_33:
	.quad	__unnamed_50
	.asciz	"\r\000\000\000\000\000\000\000%\000\000\0000\000\000"

	.section	.rdata,"dr",one_only,str.2
	.p2align	4, 0x0
str.2:
	.ascii	"attempt to divide with overflow"

	.section	.rdata,"dr",one_only,__unnamed_34
	.p2align	3, 0x0
__unnamed_34:
	.quad	__unnamed_50
	.asciz	"\r\000\000\000\000\000\000\000%\000\000\000-\000\000"

	.section	.rdata,"dr",one_only,__unnamed_58
__unnamed_58:
	.ascii	"\rProgress: (100%)"

	.section	.rdata,"dr",one_only,__unnamed_30
	.p2align	3, 0x0
__unnamed_30:
	.quad	__unnamed_58
	.asciz	"\021\000\000\000\000\000\000"

	.section	.rdata,"dr",one_only,__unnamed_36
	.p2align	3, 0x0
__unnamed_36:
	.quad	__unnamed_50
	.asciz	"\r\000\000\000\000\000\000\000-\000\000\000\016\000\000"

	.section	.rdata,"dr",one_only,__unnamed_59
__unnamed_59:
	.ascii	"\nTest "

	.section	.rdata,"dr",one_only,__unnamed_60
__unnamed_60:
	.ascii	" completed in: "

	.section	.rdata,"dr",one_only,__unnamed_61
__unnamed_61:
	.ascii	"ms\n\n"

	.section	.rdata,"dr",one_only,__unnamed_37
	.p2align	3, 0x0
__unnamed_37:
	.quad	__unnamed_59
	.asciz	"\006\000\000\000\000\000\000"
	.quad	__unnamed_60
	.asciz	"\017\000\000\000\000\000\000"
	.quad	__unnamed_61
	.asciz	"\004\000\000\000\000\000\000"

	.section	.rdata,"dr",one_only,__unnamed_38
	.p2align	3, 0x0
__unnamed_38:
	.quad	__unnamed_50
	.asciz	"\r\000\000\000\000\000\000\0001\000\000\000\t\000\000"

	.section	.rdata,"dr",one_only,__unnamed_62
__unnamed_62:
	.ascii	"Average time: "

	.section	.rdata,"dr",one_only,__unnamed_63
__unnamed_63:
	.ascii	" ms | Overall time: "

	.section	.rdata,"dr",one_only,__unnamed_64
__unnamed_64:
	.ascii	" ms (\342\211\210"

	.section	.rdata,"dr",one_only,__unnamed_65
__unnamed_65:
	.ascii	" s)\nScore: "

	.section	.rdata,"dr",one_only,__unnamed_40
	.p2align	3, 0x0
__unnamed_40:
	.quad	__unnamed_62
	.asciz	"\016\000\000\000\000\000\000"
	.quad	__unnamed_63
	.asciz	"\024\000\000\000\000\000\000"
	.quad	__unnamed_64
	.asciz	"\b\000\000\000\000\000\000"
	.quad	__unnamed_65
	.asciz	"\013\000\000\000\000\000\000"
	.quad	__unnamed_55
	.asciz	"\001\000\000\000\000\000\000"

	.section	.rdata,"dr",one_only,__unnamed_39
	.p2align	3, 0x0
__unnamed_39:
	.quad	__unnamed_50
	.asciz	"\r\000\000\000\000\000\000\0006\000\000\000\030\000\000"

	.section	.rdata,"dr",one_only,__unnamed_41
	.p2align	3, 0x0
__unnamed_41:
	.quad	__unnamed_50
	.asciz	"\r\000\000\000\000\000\000\0006\000\000\000\021\000\000"

